	.file	"main.cpp"
	.text
	.section	.text$_ZnwyPv,"x"
	.linkonce discard
	.globl	_ZnwyPv
	.def	_ZnwyPv;	.scl	2;	.type	32;	.endef
	.seh_proc	_ZnwyPv
_ZnwyPv:
.LFB170:
	pushq	%rbp
	.seh_pushreg	%rbp
	movq	%rsp, %rbp
	.seh_setframe	%rbp, 0
	.seh_endprologue
	movq	%rcx, 16(%rbp)
	movq	%rdx, 24(%rbp)
	movq	24(%rbp), %rax
	popq	%rbp
	ret
	.seh_endproc
	.section	.text$_ZdlPvS_,"x"
	.linkonce discard
	.globl	_ZdlPvS_
	.def	_ZdlPvS_;	.scl	2;	.type	32;	.endef
	.seh_proc	_ZdlPvS_
_ZdlPvS_:
.LFB172:
	pushq	%rbp
	.seh_pushreg	%rbp
	movq	%rsp, %rbp
	.seh_setframe	%rbp, 0
	.seh_endprologue
	movq	%rcx, 16(%rbp)
	movq	%rdx, 24(%rbp)
	nop
	popq	%rbp
	ret
	.seh_endproc
	.section	.text$_ZNSt11char_traitsIcE2ltERKcS2_,"x"
	.linkonce discard
	.globl	_ZNSt11char_traitsIcE2ltERKcS2_
	.def	_ZNSt11char_traitsIcE2ltERKcS2_;	.scl	2;	.type	32;	.endef
	.seh_proc	_ZNSt11char_traitsIcE2ltERKcS2_
_ZNSt11char_traitsIcE2ltERKcS2_:
.LFB243:
	pushq	%rbp
	.seh_pushreg	%rbp
	movq	%rsp, %rbp
	.seh_setframe	%rbp, 0
	.seh_endprologue
	movq	%rcx, 16(%rbp)
	movq	%rdx, 24(%rbp)
	movq	16(%rbp), %rax
	movzbl	(%rax), %eax
	movl	%eax, %edx
	movq	24(%rbp), %rax
	movzbl	(%rax), %eax
	cmpb	%al, %dl
	setb	%al
	popq	%rbp
	ret
	.seh_endproc
	.section	.text$_ZNSt11char_traitsIcE7compareEPKcS2_y,"x"
	.linkonce discard
	.globl	_ZNSt11char_traitsIcE7compareEPKcS2_y
	.def	_ZNSt11char_traitsIcE7compareEPKcS2_y;	.scl	2;	.type	32;	.endef
	.seh_proc	_ZNSt11char_traitsIcE7compareEPKcS2_y
_ZNSt11char_traitsIcE7compareEPKcS2_y:
.LFB244:
	pushq	%rbp
	.seh_pushreg	%rbp
	movq	%rsp, %rbp
	.seh_setframe	%rbp, 0
	subq	$48, %rsp
	.seh_stackalloc	48
	.seh_endprologue
	movq	%rcx, 16(%rbp)
	movq	%rdx, 24(%rbp)
	movq	%r8, 32(%rbp)
	cmpq	$0, 32(%rbp)
	jne	.L7
	movl	$0, %eax
	jmp	.L8
.L7:
	movl	$0, %eax
	testb	%al, %al
	je	.L10
	movq	$0, -8(%rbp)
	jmp	.L11
.L14:
	movq	24(%rbp), %rdx
	movq	-8(%rbp), %rax
	addq	%rax, %rdx
	movq	16(%rbp), %rcx
	movq	-8(%rbp), %rax
	addq	%rcx, %rax
	movq	%rax, %rcx
	call	_ZNSt11char_traitsIcE2ltERKcS2_
	testb	%al, %al
	je	.L12
	movl	$-1, %eax
	jmp	.L8
.L12:
	movq	16(%rbp), %rdx
	movq	-8(%rbp), %rax
	addq	%rax, %rdx
	movq	24(%rbp), %rcx
	movq	-8(%rbp), %rax
	addq	%rcx, %rax
	movq	%rax, %rcx
	call	_ZNSt11char_traitsIcE2ltERKcS2_
	testb	%al, %al
	je	.L13
	movl	$1, %eax
	jmp	.L8
.L13:
	addq	$1, -8(%rbp)
.L11:
	movq	-8(%rbp), %rax
	cmpq	32(%rbp), %rax
	jb	.L14
	movl	$0, %eax
	jmp	.L8
.L10:
	movq	32(%rbp), %rcx
	movq	24(%rbp), %rdx
	movq	16(%rbp), %rax
	movq	%rcx, %r8
	movq	%rax, %rcx
	call	memcmp
	nop
.L8:
	addq	$48, %rsp
	popq	%rbp
	ret
	.seh_endproc
	.section	.text$_ZNSt11char_traitsIcE6lengthEPKc,"x"
	.linkonce discard
	.globl	_ZNSt11char_traitsIcE6lengthEPKc
	.def	_ZNSt11char_traitsIcE6lengthEPKc;	.scl	2;	.type	32;	.endef
	.seh_proc	_ZNSt11char_traitsIcE6lengthEPKc
_ZNSt11char_traitsIcE6lengthEPKc:
.LFB245:
	pushq	%rbp
	.seh_pushreg	%rbp
	movq	%rsp, %rbp
	.seh_setframe	%rbp, 0
	subq	$32, %rsp
	.seh_stackalloc	32
	.seh_endprologue
	movq	%rcx, 16(%rbp)
	movl	$0, %eax
	testb	%al, %al
	je	.L17
	movq	16(%rbp), %rax
	movq	%rax, %rcx
	call	_ZN9__gnu_cxx11char_traitsIcE6lengthEPKc
	jmp	.L18
.L17:
	movq	16(%rbp), %rax
	movq	%rax, %rcx
	call	strlen
	nop
.L18:
	addq	$32, %rsp
	popq	%rbp
	ret
	.seh_endproc
	.section	.text$_ZNSt10_Hash_impl4hashEPKvyy,"x"
	.linkonce discard
	.globl	_ZNSt10_Hash_impl4hashEPKvyy
	.def	_ZNSt10_Hash_impl4hashEPKvyy;	.scl	2;	.type	32;	.endef
	.seh_proc	_ZNSt10_Hash_impl4hashEPKvyy
_ZNSt10_Hash_impl4hashEPKvyy:
.LFB1059:
	pushq	%rbp
	.seh_pushreg	%rbp
	movq	%rsp, %rbp
	.seh_setframe	%rbp, 0
	subq	$32, %rsp
	.seh_stackalloc	32
	.seh_endprologue
	movq	%rcx, 16(%rbp)
	movq	%rdx, 24(%rbp)
	movq	%r8, 32(%rbp)
	movq	32(%rbp), %rcx
	movq	24(%rbp), %rdx
	movq	16(%rbp), %rax
	movq	%rcx, %r8
	movq	%rax, %rcx
	call	_ZSt11_Hash_bytesPKvyy
	addq	$32, %rsp
	popq	%rbp
	ret
	.seh_endproc
	.section	.text$_ZNSt8__detail17_List_node_headerC1Ev,"x"
	.linkonce discard
	.align 2
	.globl	_ZNSt8__detail17_List_node_headerC1Ev
	.def	_ZNSt8__detail17_List_node_headerC1Ev;	.scl	2;	.type	32;	.endef
	.seh_proc	_ZNSt8__detail17_List_node_headerC1Ev
_ZNSt8__detail17_List_node_headerC1Ev:
.LFB2634:
	pushq	%rbp
	.seh_pushreg	%rbp
	movq	%rsp, %rbp
	.seh_setframe	%rbp, 0
	subq	$32, %rsp
	.seh_stackalloc	32
	.seh_endprologue
	movq	%rcx, 16(%rbp)
	movq	16(%rbp), %rax
	movq	%rax, %rcx
	call	_ZNSt8__detail17_List_node_header7_M_initEv
	nop
	addq	$32, %rsp
	popq	%rbp
	ret
	.seh_endproc
	.section	.text$_ZNSt8__detail17_List_node_headerC1EOS0_,"x"
	.linkonce discard
	.align 2
	.globl	_ZNSt8__detail17_List_node_headerC1EOS0_
	.def	_ZNSt8__detail17_List_node_headerC1EOS0_;	.scl	2;	.type	32;	.endef
	.seh_proc	_ZNSt8__detail17_List_node_headerC1EOS0_
_ZNSt8__detail17_List_node_headerC1EOS0_:
.LFB2637:
	pushq	%rbp
	.seh_pushreg	%rbp
	pushq	%rbx
	.seh_pushreg	%rbx
	subq	$40, %rsp
	.seh_stackalloc	40
	leaq	32(%rsp), %rbp
	.seh_setframe	%rbp, 32
	.seh_endprologue
	movq	%rcx, 32(%rbp)
	movq	%rdx, 40(%rbp)
	movq	40(%rbp), %rax
	movq	(%rax), %rdx
	movq	32(%rbp), %rax
	movq	%rdx, (%rax)
	movq	40(%rbp), %rax
	movq	8(%rax), %rdx
	movq	32(%rbp), %rax
	movq	%rdx, 8(%rax)
	movq	40(%rbp), %rax
	movq	16(%rax), %rdx
	movq	32(%rbp), %rax
	movq	%rdx, 16(%rax)
	movq	40(%rbp), %rax
	movq	%rax, %rcx
	call	_ZNSt8__detail17_List_node_header7_M_baseEv
	movq	(%rax), %rbx
	movq	40(%rbp), %rax
	movq	%rax, %rcx
	call	_ZNSt8__detail17_List_node_header7_M_baseEv
	cmpq	%rax, %rbx
	sete	%al
	testb	%al, %al
	je	.L23
	movq	32(%rbp), %rdx
	movq	32(%rbp), %rax
	movq	%rdx, 8(%rax)
	movq	32(%rbp), %rax
	movq	8(%rax), %rdx
	movq	32(%rbp), %rax
	movq	%rdx, (%rax)
	jmp	.L25
.L23:
	movq	32(%rbp), %rax
	movq	8(%rax), %rbx
	movq	32(%rbp), %rax
	movq	%rax, %rcx
	call	_ZNSt8__detail17_List_node_header7_M_baseEv
	movq	%rax, (%rbx)
	movq	32(%rbp), %rax
	movq	(%rax), %rax
	movq	(%rbx), %rdx
	movq	%rdx, 8(%rax)
	movq	40(%rbp), %rax
	movq	%rax, %rcx
	call	_ZNSt8__detail17_List_node_header7_M_initEv
.L25:
	nop
	addq	$40, %rsp
	popq	%rbx
	popq	%rbp
	ret
	.seh_endproc
	.section	.text$_ZNSt8__detail17_List_node_header7_M_initEv,"x"
	.linkonce discard
	.align 2
	.globl	_ZNSt8__detail17_List_node_header7_M_initEv
	.def	_ZNSt8__detail17_List_node_header7_M_initEv;	.scl	2;	.type	32;	.endef
	.seh_proc	_ZNSt8__detail17_List_node_header7_M_initEv
_ZNSt8__detail17_List_node_header7_M_initEv:
.LFB2639:
	pushq	%rbp
	.seh_pushreg	%rbp
	movq	%rsp, %rbp
	.seh_setframe	%rbp, 0
	.seh_endprologue
	movq	%rcx, 16(%rbp)
	movq	16(%rbp), %rdx
	movq	16(%rbp), %rax
	movq	%rdx, 8(%rax)
	movq	16(%rbp), %rax
	movq	8(%rax), %rdx
	movq	16(%rbp), %rax
	movq	%rdx, (%rax)
	movq	16(%rbp), %rax
	movq	$0, 16(%rax)
	nop
	popq	%rbp
	ret
	.seh_endproc
	.section	.text$_ZNSt8__detail17_List_node_header7_M_baseEv,"x"
	.linkonce discard
	.align 2
	.globl	_ZNSt8__detail17_List_node_header7_M_baseEv
	.def	_ZNSt8__detail17_List_node_header7_M_baseEv;	.scl	2;	.type	32;	.endef
	.seh_proc	_ZNSt8__detail17_List_node_header7_M_baseEv
_ZNSt8__detail17_List_node_header7_M_baseEv:
.LFB2640:
	pushq	%rbp
	.seh_pushreg	%rbp
	movq	%rsp, %rbp
	.seh_setframe	%rbp, 0
	.seh_endprologue
	movq	%rcx, 16(%rbp)
	movq	16(%rbp), %rax
	popq	%rbp
	ret
	.seh_endproc
	.section	.text$_ZSt3minIyERKT_S2_S2_,"x"
	.linkonce discard
	.globl	_ZSt3minIyERKT_S2_S2_
	.def	_ZSt3minIyERKT_S2_S2_;	.scl	2;	.type	32;	.endef
	.seh_proc	_ZSt3minIyERKT_S2_S2_
_ZSt3minIyERKT_S2_S2_:
.LFB2909:
	pushq	%rbp
	.seh_pushreg	%rbp
	movq	%rsp, %rbp
	.seh_setframe	%rbp, 0
	.seh_endprologue
	movq	%rcx, 16(%rbp)
	movq	%rdx, 24(%rbp)
	movq	24(%rbp), %rax
	movq	(%rax), %rdx
	movq	16(%rbp), %rax
	movq	(%rax), %rax
	cmpq	%rax, %rdx
	jnb	.L30
	movq	24(%rbp), %rax
	jmp	.L31
.L30:
	movq	16(%rbp), %rax
.L31:
	popq	%rbp
	ret
	.seh_endproc
	.section	.text$_ZN7HashSetINSt7__cxx1112basic_stringIcSt11char_traitsIcESaIcEEEED1Ev,"x"
	.linkonce discard
	.align 2
	.globl	_ZN7HashSetINSt7__cxx1112basic_stringIcSt11char_traitsIcESaIcEEEED1Ev
	.def	_ZN7HashSetINSt7__cxx1112basic_stringIcSt11char_traitsIcESaIcEEEED1Ev;	.scl	2;	.type	32;	.endef
	.seh_proc	_ZN7HashSetINSt7__cxx1112basic_stringIcSt11char_traitsIcESaIcEEEED1Ev
_ZN7HashSetINSt7__cxx1112basic_stringIcSt11char_traitsIcESaIcEEEED1Ev:
.LFB3437:
	pushq	%rbp
	.seh_pushreg	%rbp
	movq	%rsp, %rbp
	.seh_setframe	%rbp, 0
	subq	$32, %rsp
	.seh_stackalloc	32
	.seh_endprologue
	movq	%rcx, 16(%rbp)
	movq	16(%rbp), %rax
	movq	%rax, %rcx
	call	_ZNSt6vectorINSt7__cxx114listINS0_12basic_stringIcSt11char_traitsIcESaIcEEESaIS6_EEESaIS8_EED1Ev
	nop
	addq	$32, %rsp
	popq	%rbp
	ret
	.seh_endproc
	.section .rdata,"dr"
	.align 8
.LC0:
	.ascii "Inserting users: Alice, Bob, Charlie, David...\0"
.LC1:
	.ascii "Alice\0"
.LC2:
	.ascii "Bob\0"
.LC3:
	.ascii "Charlie\0"
.LC4:
	.ascii "David\0"
.LC5:
	.ascii "Total unique users: \0"
.LC6:
	.ascii "Inserting 'Bob' again...\0"
.LC7:
	.ascii "Total unique users is still: \0"
.LC8:
	.ascii "\12--- Membership Testing ---\0"
	.align 8
.LC9:
	.ascii "Does the set contain 'Charlie'? \0"
.LC10:
	.ascii "Yes\0"
.LC11:
	.ascii "No\0"
.LC12:
	.ascii "Does the set contain 'Eve'? \0"
.LC13:
	.ascii "Eve\0"
.LC14:
	.ascii "\12--- Removing an element ---\0"
.LC15:
	.ascii "Removing 'Alice'...\0"
	.align 8
.LC16:
	.ascii "Does the set contain 'Alice'? \0"
.LC17:
	.ascii "New size: \0"
	.text
	.globl	main
	.def	main;	.scl	2;	.type	32;	.endef
	.seh_proc	main
main:
.LFB3434:
	pushq	%rbp
	.seh_pushreg	%rbp
	pushq	%rbx
	.seh_pushreg	%rbx
	subq	$584, %rsp
	.seh_stackalloc	584
	leaq	128(%rsp), %rbp
	.seh_setframe	%rbp, 128
	.seh_endprologue
	call	__main
	leaq	-96(%rbp), %rax
	movl	$5, %edx
	movq	%rax, %rcx
.LEHB0:
	call	_ZN7HashSetINSt7__cxx1112basic_stringIcSt11char_traitsIcESaIcEEEEC1Ei
.LEHE0:
	leaq	.LC0(%rip), %rax
	movq	%rax, %rdx
	movq	.refptr._ZSt4cout(%rip), %rax
	movq	%rax, %rcx
.LEHB1:
	call	_ZStlsISt11char_traitsIcEERSt13basic_ostreamIcT_ES5_PKc
	movq	%rax, %rcx
	movq	.refptr._ZSt4endlIcSt11char_traitsIcEERSt13basic_ostreamIT_T0_ES6_(%rip), %rax
	movq	%rax, %rdx
	call	_ZNSolsEPFRSoS_E
.LEHE1:
	leaq	-1(%rbp), %rax
	movq	%rax, 440(%rbp)
	nop
	nop
	leaq	-1(%rbp), %rdx
	leaq	-48(%rbp), %rax
	movq	%rdx, %r8
	leaq	.LC1(%rip), %rdx
	movq	%rax, %rcx
.LEHB2:
	call	_ZNSt7__cxx1112basic_stringIcSt11char_traitsIcESaIcEEC1IS3_EEPKcRKS3_
.LEHE2:
	leaq	-48(%rbp), %rdx
	leaq	-96(%rbp), %rax
	movq	%rax, %rcx
.LEHB3:
	call	_ZN7HashSetINSt7__cxx1112basic_stringIcSt11char_traitsIcESaIcEEEE6insertERKS5_
.LEHE3:
	leaq	-48(%rbp), %rax
	movq	%rax, %rcx
	call	_ZNSt7__cxx1112basic_stringIcSt11char_traitsIcESaIcEED1Ev
	leaq	-1(%rbp), %rax
	movq	%rax, %rcx
	call	_ZNSt15__new_allocatorIcED2Ev
	nop
	leaq	47(%rbp), %rax
	movq	%rax, 432(%rbp)
	nop
	nop
	leaq	47(%rbp), %rdx
	movq	%rbp, %rax
	movq	%rdx, %r8
	leaq	.LC2(%rip), %rdx
	movq	%rax, %rcx
.LEHB4:
	call	_ZNSt7__cxx1112basic_stringIcSt11char_traitsIcESaIcEEC1IS3_EEPKcRKS3_
.LEHE4:
	movq	%rbp, %rdx
	leaq	-96(%rbp), %rax
	movq	%rax, %rcx
.LEHB5:
	call	_ZN7HashSetINSt7__cxx1112basic_stringIcSt11char_traitsIcESaIcEEEE6insertERKS5_
.LEHE5:
	movq	%rbp, %rax
	movq	%rax, %rcx
	call	_ZNSt7__cxx1112basic_stringIcSt11char_traitsIcESaIcEED1Ev
	leaq	47(%rbp), %rax
	movq	%rax, %rcx
	call	_ZNSt15__new_allocatorIcED2Ev
	nop
	leaq	95(%rbp), %rax
	movq	%rax, 424(%rbp)
	nop
	nop
	leaq	95(%rbp), %rdx
	leaq	48(%rbp), %rax
	movq	%rdx, %r8
	leaq	.LC3(%rip), %rdx
	movq	%rax, %rcx
.LEHB6:
	call	_ZNSt7__cxx1112basic_stringIcSt11char_traitsIcESaIcEEC1IS3_EEPKcRKS3_
.LEHE6:
	leaq	48(%rbp), %rdx
	leaq	-96(%rbp), %rax
	movq	%rax, %rcx
.LEHB7:
	call	_ZN7HashSetINSt7__cxx1112basic_stringIcSt11char_traitsIcESaIcEEEE6insertERKS5_
.LEHE7:
	leaq	48(%rbp), %rax
	movq	%rax, %rcx
	call	_ZNSt7__cxx1112basic_stringIcSt11char_traitsIcESaIcEED1Ev
	leaq	95(%rbp), %rax
	movq	%rax, %rcx
	call	_ZNSt15__new_allocatorIcED2Ev
	nop
	leaq	143(%rbp), %rax
	movq	%rax, 416(%rbp)
	nop
	nop
	leaq	143(%rbp), %rdx
	leaq	96(%rbp), %rax
	movq	%rdx, %r8
	leaq	.LC4(%rip), %rdx
	movq	%rax, %rcx
.LEHB8:
	call	_ZNSt7__cxx1112basic_stringIcSt11char_traitsIcESaIcEEC1IS3_EEPKcRKS3_
.LEHE8:
	leaq	96(%rbp), %rdx
	leaq	-96(%rbp), %rax
	movq	%rax, %rcx
.LEHB9:
	call	_ZN7HashSetINSt7__cxx1112basic_stringIcSt11char_traitsIcESaIcEEEE6insertERKS5_
.LEHE9:
	leaq	96(%rbp), %rax
	movq	%rax, %rcx
	call	_ZNSt7__cxx1112basic_stringIcSt11char_traitsIcESaIcEED1Ev
	leaq	143(%rbp), %rax
	movq	%rax, %rcx
	call	_ZNSt15__new_allocatorIcED2Ev
	nop
	leaq	.LC5(%rip), %rax
	movq	%rax, %rdx
	movq	.refptr._ZSt4cout(%rip), %rax
	movq	%rax, %rcx
.LEHB10:
	call	_ZStlsISt11char_traitsIcEERSt13basic_ostreamIcT_ES5_PKc
	movq	%rax, %rbx
	leaq	-96(%rbp), %rax
	movq	%rax, %rcx
	call	_ZNK7HashSetINSt7__cxx1112basic_stringIcSt11char_traitsIcESaIcEEEE4sizeEv
	movl	%eax, %edx
	movq	%rbx, %rcx
	call	_ZNSolsEi
	movq	%rax, %rcx
	movq	.refptr._ZSt4endlIcSt11char_traitsIcEERSt13basic_ostreamIT_T0_ES6_(%rip), %rax
	movq	%rax, %rdx
	call	_ZNSolsEPFRSoS_E
	leaq	-96(%rbp), %rax
	movq	%rax, %rcx
	call	_ZNK7HashSetINSt7__cxx1112basic_stringIcSt11char_traitsIcESaIcEEEE7displayEv
	leaq	.LC6(%rip), %rax
	movq	%rax, %rdx
	movq	.refptr._ZSt4cout(%rip), %rax
	movq	%rax, %rcx
	call	_ZStlsISt11char_traitsIcEERSt13basic_ostreamIcT_ES5_PKc
	movq	%rax, %rcx
	movq	.refptr._ZSt4endlIcSt11char_traitsIcEERSt13basic_ostreamIT_T0_ES6_(%rip), %rax
	movq	%rax, %rdx
	call	_ZNSolsEPFRSoS_E
.LEHE10:
	leaq	191(%rbp), %rax
	movq	%rax, 408(%rbp)
	nop
	nop
	leaq	191(%rbp), %rdx
	leaq	144(%rbp), %rax
	movq	%rdx, %r8
	leaq	.LC2(%rip), %rdx
	movq	%rax, %rcx
.LEHB11:
	call	_ZNSt7__cxx1112basic_stringIcSt11char_traitsIcESaIcEEC1IS3_EEPKcRKS3_
.LEHE11:
	leaq	144(%rbp), %rdx
	leaq	-96(%rbp), %rax
	movq	%rax, %rcx
.LEHB12:
	call	_ZN7HashSetINSt7__cxx1112basic_stringIcSt11char_traitsIcESaIcEEEE6insertERKS5_
.LEHE12:
	leaq	144(%rbp), %rax
	movq	%rax, %rcx
	call	_ZNSt7__cxx1112basic_stringIcSt11char_traitsIcESaIcEED1Ev
	leaq	191(%rbp), %rax
	movq	%rax, %rcx
	call	_ZNSt15__new_allocatorIcED2Ev
	nop
	leaq	.LC7(%rip), %rax
	movq	%rax, %rdx
	movq	.refptr._ZSt4cout(%rip), %rax
	movq	%rax, %rcx
.LEHB13:
	call	_ZStlsISt11char_traitsIcEERSt13basic_ostreamIcT_ES5_PKc
	movq	%rax, %rbx
	leaq	-96(%rbp), %rax
	movq	%rax, %rcx
	call	_ZNK7HashSetINSt7__cxx1112basic_stringIcSt11char_traitsIcESaIcEEEE4sizeEv
	movl	%eax, %edx
	movq	%rbx, %rcx
	call	_ZNSolsEi
	movq	%rax, %rcx
	movq	.refptr._ZSt4endlIcSt11char_traitsIcEERSt13basic_ostreamIT_T0_ES6_(%rip), %rax
	movq	%rax, %rdx
	call	_ZNSolsEPFRSoS_E
	leaq	.LC8(%rip), %rax
	movq	%rax, %rdx
	movq	.refptr._ZSt4cout(%rip), %rax
	movq	%rax, %rcx
	call	_ZStlsISt11char_traitsIcEERSt13basic_ostreamIcT_ES5_PKc
	movq	%rax, %rcx
	movq	.refptr._ZSt4endlIcSt11char_traitsIcEERSt13basic_ostreamIT_T0_ES6_(%rip), %rax
	movq	%rax, %rdx
	call	_ZNSolsEPFRSoS_E
	leaq	.LC9(%rip), %rax
	movq	%rax, %rdx
	movq	.refptr._ZSt4cout(%rip), %rax
	movq	%rax, %rcx
	call	_ZStlsISt11char_traitsIcEERSt13basic_ostreamIcT_ES5_PKc
.LEHE13:
	movq	%rax, %rbx
	leaq	239(%rbp), %rax
	movq	%rax, 400(%rbp)
	nop
	nop
	leaq	239(%rbp), %rdx
	leaq	192(%rbp), %rax
	movq	%rdx, %r8
	leaq	.LC3(%rip), %rdx
	movq	%rax, %rcx
.LEHB14:
	call	_ZNSt7__cxx1112basic_stringIcSt11char_traitsIcESaIcEEC1IS3_EEPKcRKS3_
.LEHE14:
	leaq	192(%rbp), %rdx
	leaq	-96(%rbp), %rax
	movq	%rax, %rcx
.LEHB15:
	call	_ZNK7HashSetINSt7__cxx1112basic_stringIcSt11char_traitsIcESaIcEEEE8containsERKS5_
	testb	%al, %al
	je	.L34
	leaq	.LC10(%rip), %rax
	jmp	.L35
.L34:
	leaq	.LC11(%rip), %rax
.L35:
	movq	%rax, %rdx
	movq	%rbx, %rcx
	call	_ZStlsISt11char_traitsIcEERSt13basic_ostreamIcT_ES5_PKc
	movq	%rax, %rcx
	movq	.refptr._ZSt4endlIcSt11char_traitsIcEERSt13basic_ostreamIT_T0_ES6_(%rip), %rax
	movq	%rax, %rdx
	call	_ZNSolsEPFRSoS_E
.LEHE15:
	leaq	192(%rbp), %rax
	movq	%rax, %rcx
	call	_ZNSt7__cxx1112basic_stringIcSt11char_traitsIcESaIcEED1Ev
	leaq	239(%rbp), %rax
	movq	%rax, %rcx
	call	_ZNSt15__new_allocatorIcED2Ev
	nop
	leaq	.LC12(%rip), %rax
	movq	%rax, %rdx
	movq	.refptr._ZSt4cout(%rip), %rax
	movq	%rax, %rcx
.LEHB16:
	call	_ZStlsISt11char_traitsIcEERSt13basic_ostreamIcT_ES5_PKc
.LEHE16:
	movq	%rax, %rbx
	leaq	287(%rbp), %rax
	movq	%rax, 392(%rbp)
	nop
	nop
	leaq	287(%rbp), %rdx
	leaq	240(%rbp), %rax
	movq	%rdx, %r8
	leaq	.LC13(%rip), %rdx
	movq	%rax, %rcx
.LEHB17:
	call	_ZNSt7__cxx1112basic_stringIcSt11char_traitsIcESaIcEEC1IS3_EEPKcRKS3_
.LEHE17:
	leaq	240(%rbp), %rdx
	leaq	-96(%rbp), %rax
	movq	%rax, %rcx
.LEHB18:
	call	_ZNK7HashSetINSt7__cxx1112basic_stringIcSt11char_traitsIcESaIcEEEE8containsERKS5_
	testb	%al, %al
	je	.L36
	leaq	.LC10(%rip), %rax
	jmp	.L37
.L36:
	leaq	.LC11(%rip), %rax
.L37:
	movq	%rax, %rdx
	movq	%rbx, %rcx
	call	_ZStlsISt11char_traitsIcEERSt13basic_ostreamIcT_ES5_PKc
	movq	%rax, %rcx
	movq	.refptr._ZSt4endlIcSt11char_traitsIcEERSt13basic_ostreamIT_T0_ES6_(%rip), %rax
	movq	%rax, %rdx
	call	_ZNSolsEPFRSoS_E
.LEHE18:
	leaq	240(%rbp), %rax
	movq	%rax, %rcx
	call	_ZNSt7__cxx1112basic_stringIcSt11char_traitsIcESaIcEED1Ev
	leaq	287(%rbp), %rax
	movq	%rax, %rcx
	call	_ZNSt15__new_allocatorIcED2Ev
	nop
	leaq	.LC14(%rip), %rax
	movq	%rax, %rdx
	movq	.refptr._ZSt4cout(%rip), %rax
	movq	%rax, %rcx
.LEHB19:
	call	_ZStlsISt11char_traitsIcEERSt13basic_ostreamIcT_ES5_PKc
	movq	%rax, %rcx
	movq	.refptr._ZSt4endlIcSt11char_traitsIcEERSt13basic_ostreamIT_T0_ES6_(%rip), %rax
	movq	%rax, %rdx
	call	_ZNSolsEPFRSoS_E
	leaq	.LC15(%rip), %rax
	movq	%rax, %rdx
	movq	.refptr._ZSt4cout(%rip), %rax
	movq	%rax, %rcx
	call	_ZStlsISt11char_traitsIcEERSt13basic_ostreamIcT_ES5_PKc
	movq	%rax, %rcx
	movq	.refptr._ZSt4endlIcSt11char_traitsIcEERSt13basic_ostreamIT_T0_ES6_(%rip), %rax
	movq	%rax, %rdx
	call	_ZNSolsEPFRSoS_E
.LEHE19:
	leaq	335(%rbp), %rax
	movq	%rax, 384(%rbp)
	nop
	nop
	leaq	335(%rbp), %rdx
	leaq	288(%rbp), %rax
	movq	%rdx, %r8
	leaq	.LC1(%rip), %rdx
	movq	%rax, %rcx
.LEHB20:
	call	_ZNSt7__cxx1112basic_stringIcSt11char_traitsIcESaIcEEC1IS3_EEPKcRKS3_
.LEHE20:
	leaq	288(%rbp), %rdx
	leaq	-96(%rbp), %rax
	movq	%rax, %rcx
.LEHB21:
	call	_ZN7HashSetINSt7__cxx1112basic_stringIcSt11char_traitsIcESaIcEEEE6removeERKS5_
.LEHE21:
	leaq	288(%rbp), %rax
	movq	%rax, %rcx
	call	_ZNSt7__cxx1112basic_stringIcSt11char_traitsIcESaIcEED1Ev
	leaq	335(%rbp), %rax
	movq	%rax, %rcx
	call	_ZNSt15__new_allocatorIcED2Ev
	nop
	leaq	.LC16(%rip), %rax
	movq	%rax, %rdx
	movq	.refptr._ZSt4cout(%rip), %rax
	movq	%rax, %rcx
.LEHB22:
	call	_ZStlsISt11char_traitsIcEERSt13basic_ostreamIcT_ES5_PKc
.LEHE22:
	movq	%rax, %rbx
	leaq	375(%rbp), %rax
	movq	%rax, 376(%rbp)
	nop
	nop
	leaq	375(%rbp), %rdx
	leaq	336(%rbp), %rax
	movq	%rdx, %r8
	leaq	.LC1(%rip), %rdx
	movq	%rax, %rcx
.LEHB23:
	call	_ZNSt7__cxx1112basic_stringIcSt11char_traitsIcESaIcEEC1IS3_EEPKcRKS3_
.LEHE23:
	leaq	336(%rbp), %rdx
	leaq	-96(%rbp), %rax
	movq	%rax, %rcx
.LEHB24:
	call	_ZNK7HashSetINSt7__cxx1112basic_stringIcSt11char_traitsIcESaIcEEEE8containsERKS5_
	testb	%al, %al
	je	.L38
	leaq	.LC10(%rip), %rax
	jmp	.L39
.L38:
	leaq	.LC11(%rip), %rax
.L39:
	movq	%rax, %rdx
	movq	%rbx, %rcx
	call	_ZStlsISt11char_traitsIcEERSt13basic_ostreamIcT_ES5_PKc
	movq	%rax, %rcx
	movq	.refptr._ZSt4endlIcSt11char_traitsIcEERSt13basic_ostreamIT_T0_ES6_(%rip), %rax
	movq	%rax, %rdx
	call	_ZNSolsEPFRSoS_E
.LEHE24:
	leaq	336(%rbp), %rax
	movq	%rax, %rcx
	call	_ZNSt7__cxx1112basic_stringIcSt11char_traitsIcESaIcEED1Ev
	leaq	375(%rbp), %rax
	movq	%rax, %rcx
	call	_ZNSt15__new_allocatorIcED2Ev
	nop
	leaq	.LC17(%rip), %rax
	movq	%rax, %rdx
	movq	.refptr._ZSt4cout(%rip), %rax
	movq	%rax, %rcx
.LEHB25:
	call	_ZStlsISt11char_traitsIcEERSt13basic_ostreamIcT_ES5_PKc
	movq	%rax, %rbx
	leaq	-96(%rbp), %rax
	movq	%rax, %rcx
	call	_ZNK7HashSetINSt7__cxx1112basic_stringIcSt11char_traitsIcESaIcEEEE4sizeEv
	movl	%eax, %edx
	movq	%rbx, %rcx
	call	_ZNSolsEi
	movq	%rax, %rcx
	movq	.refptr._ZSt4endlIcSt11char_traitsIcEERSt13basic_ostreamIT_T0_ES6_(%rip), %rax
	movq	%rax, %rdx
	call	_ZNSolsEPFRSoS_E
	leaq	-96(%rbp), %rax
	movq	%rax, %rcx
	call	_ZNK7HashSetINSt7__cxx1112basic_stringIcSt11char_traitsIcESaIcEEEE7displayEv
.LEHE25:
	movl	$0, %ebx
	leaq	-96(%rbp), %rax
	movq	%rax, %rcx
	call	_ZN7HashSetINSt7__cxx1112basic_stringIcSt11char_traitsIcESaIcEEEED1Ev
	movl	%ebx, %eax
	jmp	.L79
.L62:
	movq	%rax, %rbx
	leaq	-48(%rbp), %rax
	movq	%rax, %rcx
	call	_ZNSt7__cxx1112basic_stringIcSt11char_traitsIcESaIcEED1Ev
	jmp	.L42
.L61:
	movq	%rax, %rbx
.L42:
	leaq	-1(%rbp), %rax
	movq	%rax, %rcx
	call	_ZNSt15__new_allocatorIcED2Ev
	nop
	jmp	.L43
.L64:
	movq	%rax, %rbx
	movq	%rbp, %rax
	movq	%rax, %rcx
	call	_ZNSt7__cxx1112basic_stringIcSt11char_traitsIcESaIcEED1Ev
	jmp	.L45
.L63:
	movq	%rax, %rbx
.L45:
	leaq	47(%rbp), %rax
	movq	%rax, %rcx
	call	_ZNSt15__new_allocatorIcED2Ev
	nop
	jmp	.L43
.L66:
	movq	%rax, %rbx
	leaq	48(%rbp), %rax
	movq	%rax, %rcx
	call	_ZNSt7__cxx1112basic_stringIcSt11char_traitsIcESaIcEED1Ev
	jmp	.L47
.L65:
	movq	%rax, %rbx
.L47:
	leaq	95(%rbp), %rax
	movq	%rax, %rcx
	call	_ZNSt15__new_allocatorIcED2Ev
	nop
	jmp	.L43
.L68:
	movq	%rax, %rbx
	leaq	96(%rbp), %rax
	movq	%rax, %rcx
	call	_ZNSt7__cxx1112basic_stringIcSt11char_traitsIcESaIcEED1Ev
	jmp	.L49
.L67:
	movq	%rax, %rbx
.L49:
	leaq	143(%rbp), %rax
	movq	%rax, %rcx
	call	_ZNSt15__new_allocatorIcED2Ev
	nop
	jmp	.L43
.L70:
	movq	%rax, %rbx
	leaq	144(%rbp), %rax
	movq	%rax, %rcx
	call	_ZNSt7__cxx1112basic_stringIcSt11char_traitsIcESaIcEED1Ev
	jmp	.L51
.L69:
	movq	%rax, %rbx
.L51:
	leaq	191(%rbp), %rax
	movq	%rax, %rcx
	call	_ZNSt15__new_allocatorIcED2Ev
	nop
	jmp	.L43
.L72:
	movq	%rax, %rbx
	leaq	192(%rbp), %rax
	movq	%rax, %rcx
	call	_ZNSt7__cxx1112basic_stringIcSt11char_traitsIcESaIcEED1Ev
	jmp	.L53
.L71:
	movq	%rax, %rbx
.L53:
	leaq	239(%rbp), %rax
	movq	%rax, %rcx
	call	_ZNSt15__new_allocatorIcED2Ev
	nop
	jmp	.L43
.L74:
	movq	%rax, %rbx
	leaq	240(%rbp), %rax
	movq	%rax, %rcx
	call	_ZNSt7__cxx1112basic_stringIcSt11char_traitsIcESaIcEED1Ev
	jmp	.L55
.L73:
	movq	%rax, %rbx
.L55:
	leaq	287(%rbp), %rax
	movq	%rax, %rcx
	call	_ZNSt15__new_allocatorIcED2Ev
	nop
	jmp	.L43
.L76:
	movq	%rax, %rbx
	leaq	288(%rbp), %rax
	movq	%rax, %rcx
	call	_ZNSt7__cxx1112basic_stringIcSt11char_traitsIcESaIcEED1Ev
	jmp	.L57
.L75:
	movq	%rax, %rbx
.L57:
	leaq	335(%rbp), %rax
	movq	%rax, %rcx
	call	_ZNSt15__new_allocatorIcED2Ev
	nop
	jmp	.L43
.L78:
	movq	%rax, %rbx
	leaq	336(%rbp), %rax
	movq	%rax, %rcx
	call	_ZNSt7__cxx1112basic_stringIcSt11char_traitsIcESaIcEED1Ev
	jmp	.L59
.L77:
	movq	%rax, %rbx
.L59:
	leaq	375(%rbp), %rax
	movq	%rax, %rcx
	call	_ZNSt15__new_allocatorIcED2Ev
	nop
	jmp	.L43
.L60:
	movq	%rax, %rbx
.L43:
	leaq	-96(%rbp), %rax
	movq	%rax, %rcx
	call	_ZN7HashSetINSt7__cxx1112basic_stringIcSt11char_traitsIcESaIcEEEED1Ev
	movq	%rbx, %rax
	movq	%rax, %rcx
.LEHB26:
	call	_Unwind_Resume
.LEHE26:
.L79:
	addq	$584, %rsp
	popq	%rbx
	popq	%rbp
	ret
	.seh_handler	__gxx_personality_seh0, @unwind, @except
	.seh_handlerdata
.LLSDA3434:
	.byte	0xff
	.byte	0xff
	.byte	0x1
	.uleb128 .LLSDACSE3434-.LLSDACSB3434
.LLSDACSB3434:
	.uleb128 .LEHB0-.LFB3434
	.uleb128 .LEHE0-.LEHB0
	.uleb128 0
	.uleb128 0
	.uleb128 .LEHB1-.LFB3434
	.uleb128 .LEHE1-.LEHB1
	.uleb128 .L60-.LFB3434
	.uleb128 0
	.uleb128 .LEHB2-.LFB3434
	.uleb128 .LEHE2-.LEHB2
	.uleb128 .L61-.LFB3434
	.uleb128 0
	.uleb128 .LEHB3-.LFB3434
	.uleb128 .LEHE3-.LEHB3
	.uleb128 .L62-.LFB3434
	.uleb128 0
	.uleb128 .LEHB4-.LFB3434
	.uleb128 .LEHE4-.LEHB4
	.uleb128 .L63-.LFB3434
	.uleb128 0
	.uleb128 .LEHB5-.LFB3434
	.uleb128 .LEHE5-.LEHB5
	.uleb128 .L64-.LFB3434
	.uleb128 0
	.uleb128 .LEHB6-.LFB3434
	.uleb128 .LEHE6-.LEHB6
	.uleb128 .L65-.LFB3434
	.uleb128 0
	.uleb128 .LEHB7-.LFB3434
	.uleb128 .LEHE7-.LEHB7
	.uleb128 .L66-.LFB3434
	.uleb128 0
	.uleb128 .LEHB8-.LFB3434
	.uleb128 .LEHE8-.LEHB8
	.uleb128 .L67-.LFB3434
	.uleb128 0
	.uleb128 .LEHB9-.LFB3434
	.uleb128 .LEHE9-.LEHB9
	.uleb128 .L68-.LFB3434
	.uleb128 0
	.uleb128 .LEHB10-.LFB3434
	.uleb128 .LEHE10-.LEHB10
	.uleb128 .L60-.LFB3434
	.uleb128 0
	.uleb128 .LEHB11-.LFB3434
	.uleb128 .LEHE11-.LEHB11
	.uleb128 .L69-.LFB3434
	.uleb128 0
	.uleb128 .LEHB12-.LFB3434
	.uleb128 .LEHE12-.LEHB12
	.uleb128 .L70-.LFB3434
	.uleb128 0
	.uleb128 .LEHB13-.LFB3434
	.uleb128 .LEHE13-.LEHB13
	.uleb128 .L60-.LFB3434
	.uleb128 0
	.uleb128 .LEHB14-.LFB3434
	.uleb128 .LEHE14-.LEHB14
	.uleb128 .L71-.LFB3434
	.uleb128 0
	.uleb128 .LEHB15-.LFB3434
	.uleb128 .LEHE15-.LEHB15
	.uleb128 .L72-.LFB3434
	.uleb128 0
	.uleb128 .LEHB16-.LFB3434
	.uleb128 .LEHE16-.LEHB16
	.uleb128 .L60-.LFB3434
	.uleb128 0
	.uleb128 .LEHB17-.LFB3434
	.uleb128 .LEHE17-.LEHB17
	.uleb128 .L73-.LFB3434
	.uleb128 0
	.uleb128 .LEHB18-.LFB3434
	.uleb128 .LEHE18-.LEHB18
	.uleb128 .L74-.LFB3434
	.uleb128 0
	.uleb128 .LEHB19-.LFB3434
	.uleb128 .LEHE19-.LEHB19
	.uleb128 .L60-.LFB3434
	.uleb128 0
	.uleb128 .LEHB20-.LFB3434
	.uleb128 .LEHE20-.LEHB20
	.uleb128 .L75-.LFB3434
	.uleb128 0
	.uleb128 .LEHB21-.LFB3434
	.uleb128 .LEHE21-.LEHB21
	.uleb128 .L76-.LFB3434
	.uleb128 0
	.uleb128 .LEHB22-.LFB3434
	.uleb128 .LEHE22-.LEHB22
	.uleb128 .L60-.LFB3434
	.uleb128 0
	.uleb128 .LEHB23-.LFB3434
	.uleb128 .LEHE23-.LEHB23
	.uleb128 .L77-.LFB3434
	.uleb128 0
	.uleb128 .LEHB24-.LFB3434
	.uleb128 .LEHE24-.LEHB24
	.uleb128 .L78-.LFB3434
	.uleb128 0
	.uleb128 .LEHB25-.LFB3434
	.uleb128 .LEHE25-.LEHB25
	.uleb128 .L60-.LFB3434
	.uleb128 0
	.uleb128 .LEHB26-.LFB3434
	.uleb128 .LEHE26-.LEHB26
	.uleb128 0
	.uleb128 0
.LLSDACSE3434:
	.text
	.seh_endproc
	.section	.text$_ZN9__gnu_cxx11char_traitsIcE6lengthEPKc,"x"
	.linkonce discard
	.align 2
	.globl	_ZN9__gnu_cxx11char_traitsIcE6lengthEPKc
	.def	_ZN9__gnu_cxx11char_traitsIcE6lengthEPKc;	.scl	2;	.type	32;	.endef
	.seh_proc	_ZN9__gnu_cxx11char_traitsIcE6lengthEPKc
_ZN9__gnu_cxx11char_traitsIcE6lengthEPKc:
.LFB3438:
	pushq	%rbp
	.seh_pushreg	%rbp
	movq	%rsp, %rbp
	.seh_setframe	%rbp, 0
	subq	$48, %rsp
	.seh_stackalloc	48
	.seh_endprologue
	movq	%rcx, 16(%rbp)
	movq	$0, -8(%rbp)
	jmp	.L81
.L82:
	addq	$1, -8(%rbp)
.L81:
	movb	$0, -9(%rbp)
	movq	16(%rbp), %rdx
	movq	-8(%rbp), %rax
	leaq	(%rdx,%rax), %rcx
	leaq	-9(%rbp), %rax
	movq	%rax, %rdx
	call	_ZN9__gnu_cxx11char_traitsIcE2eqERKcS3_
	xorl	$1, %eax
	testb	%al, %al
	jne	.L82
	movq	-8(%rbp), %rax
	addq	$48, %rsp
	popq	%rbp
	ret
	.seh_endproc
	.section	.text$_ZNSt7__cxx1112basic_stringIcSt11char_traitsIcESaIcEE12_Alloc_hiderD1Ev,"x"
	.linkonce discard
	.align 2
	.globl	_ZNSt7__cxx1112basic_stringIcSt11char_traitsIcESaIcEE12_Alloc_hiderD1Ev
	.def	_ZNSt7__cxx1112basic_stringIcSt11char_traitsIcESaIcEE12_Alloc_hiderD1Ev;	.scl	2;	.type	32;	.endef
	.seh_proc	_ZNSt7__cxx1112basic_stringIcSt11char_traitsIcESaIcEE12_Alloc_hiderD1Ev
_ZNSt7__cxx1112basic_stringIcSt11char_traitsIcESaIcEE12_Alloc_hiderD1Ev:
.LFB3537:
	pushq	%rbp
	.seh_pushreg	%rbp
	movq	%rsp, %rbp
	.seh_setframe	%rbp, 0
	subq	$48, %rsp
	.seh_stackalloc	48
	.seh_endprologue
	movq	%rcx, 16(%rbp)
	movq	16(%rbp), %rax
	movq	%rax, -8(%rbp)
	movq	-8(%rbp), %rax
	movq	%rax, %rcx
	call	_ZNSt15__new_allocatorIcED2Ev
	nop
	nop
	addq	$48, %rsp
	popq	%rbp
	ret
	.seh_endproc
	.section	.text$_ZSt3maxIyERKT_S2_S2_,"x"
	.linkonce discard
	.globl	_ZSt3maxIyERKT_S2_S2_
	.def	_ZSt3maxIyERKT_S2_S2_;	.scl	2;	.type	32;	.endef
	.seh_proc	_ZSt3maxIyERKT_S2_S2_
_ZSt3maxIyERKT_S2_S2_:
.LFB3711:
	pushq	%rbp
	.seh_pushreg	%rbp
	movq	%rsp, %rbp
	.seh_setframe	%rbp, 0
	.seh_endprologue
	movq	%rcx, 16(%rbp)
	movq	%rdx, 24(%rbp)
	movq	16(%rbp), %rax
	movq	(%rax), %rdx
	movq	24(%rbp), %rax
	movq	(%rax), %rax
	cmpq	%rax, %rdx
	jnb	.L86
	movq	24(%rbp), %rax
	jmp	.L87
.L86:
	movq	16(%rbp), %rax
.L87:
	popq	%rbp
	ret
	.seh_endproc
	.section	.text$_ZNSt12_Vector_baseINSt7__cxx114listINS0_12basic_stringIcSt11char_traitsIcESaIcEEESaIS6_EEESaIS8_EE12_Vector_implD1Ev,"x"
	.linkonce discard
	.align 2
	.globl	_ZNSt12_Vector_baseINSt7__cxx114listINS0_12basic_stringIcSt11char_traitsIcESaIcEEESaIS6_EEESaIS8_EE12_Vector_implD1Ev
	.def	_ZNSt12_Vector_baseINSt7__cxx114listINS0_12basic_stringIcSt11char_traitsIcESaIcEEESaIS6_EEESaIS8_EE12_Vector_implD1Ev;	.scl	2;	.type	32;	.endef
	.seh_proc	_ZNSt12_Vector_baseINSt7__cxx114listINS0_12basic_stringIcSt11char_traitsIcESaIcEEESaIS6_EEESaIS8_EE12_Vector_implD1Ev
_ZNSt12_Vector_baseINSt7__cxx114listINS0_12basic_stringIcSt11char_traitsIcESaIcEEESaIS6_EEESaIS8_EE12_Vector_implD1Ev:
.LFB3725:
	pushq	%rbp
	.seh_pushreg	%rbp
	movq	%rsp, %rbp
	.seh_setframe	%rbp, 0
	subq	$48, %rsp
	.seh_stackalloc	48
	.seh_endprologue
	movq	%rcx, 16(%rbp)
	movq	16(%rbp), %rax
	movq	%rax, -8(%rbp)
	movq	-8(%rbp), %rax
	movq	%rax, %rcx
	call	_ZNSt15__new_allocatorINSt7__cxx114listINS0_12basic_stringIcSt11char_traitsIcESaIcEEESaIS6_EEEED2Ev
	nop
	nop
	addq	$48, %rsp
	popq	%rbp
	ret
	.seh_endproc
	.section	.text$_ZNSt12_Vector_baseINSt7__cxx114listINS0_12basic_stringIcSt11char_traitsIcESaIcEEESaIS6_EEESaIS8_EEC2Ev,"x"
	.linkonce discard
	.align 2
	.globl	_ZNSt12_Vector_baseINSt7__cxx114listINS0_12basic_stringIcSt11char_traitsIcESaIcEEESaIS6_EEESaIS8_EEC2Ev
	.def	_ZNSt12_Vector_baseINSt7__cxx114listINS0_12basic_stringIcSt11char_traitsIcESaIcEEESaIS6_EEESaIS8_EEC2Ev;	.scl	2;	.type	32;	.endef
	.seh_proc	_ZNSt12_Vector_baseINSt7__cxx114listINS0_12basic_stringIcSt11char_traitsIcESaIcEEESaIS6_EEESaIS8_EEC2Ev
_ZNSt12_Vector_baseINSt7__cxx114listINS0_12basic_stringIcSt11char_traitsIcESaIcEEESaIS6_EEESaIS8_EEC2Ev:
.LFB3726:
	pushq	%rbp
	.seh_pushreg	%rbp
	movq	%rsp, %rbp
	.seh_setframe	%rbp, 0
	subq	$32, %rsp
	.seh_stackalloc	32
	.seh_endprologue
	movq	%rcx, 16(%rbp)
	movq	16(%rbp), %rax
	movq	%rax, %rcx
	call	_ZNSt12_Vector_baseINSt7__cxx114listINS0_12basic_stringIcSt11char_traitsIcESaIcEEESaIS6_EEESaIS8_EE12_Vector_implC1Ev
	nop
	addq	$32, %rsp
	popq	%rbp
	ret
	.seh_endproc
	.section	.text$_ZNSt6vectorINSt7__cxx114listINS0_12basic_stringIcSt11char_traitsIcESaIcEEESaIS6_EEESaIS8_EEC1Ev,"x"
	.linkonce discard
	.align 2
	.globl	_ZNSt6vectorINSt7__cxx114listINS0_12basic_stringIcSt11char_traitsIcESaIcEEESaIS6_EEESaIS8_EEC1Ev
	.def	_ZNSt6vectorINSt7__cxx114listINS0_12basic_stringIcSt11char_traitsIcESaIcEEESaIS6_EEESaIS8_EEC1Ev;	.scl	2;	.type	32;	.endef
	.seh_proc	_ZNSt6vectorINSt7__cxx114listINS0_12basic_stringIcSt11char_traitsIcESaIcEEESaIS6_EEESaIS8_EEC1Ev
_ZNSt6vectorINSt7__cxx114listINS0_12basic_stringIcSt11char_traitsIcESaIcEEESaIS6_EEESaIS8_EEC1Ev:
.LFB3729:
	pushq	%rbp
	.seh_pushreg	%rbp
	movq	%rsp, %rbp
	.seh_setframe	%rbp, 0
	subq	$32, %rsp
	.seh_stackalloc	32
	.seh_endprologue
	movq	%rcx, 16(%rbp)
	movq	16(%rbp), %rax
	movq	%rax, %rcx
	call	_ZNSt12_Vector_baseINSt7__cxx114listINS0_12basic_stringIcSt11char_traitsIcESaIcEEESaIS6_EEESaIS8_EEC2Ev
	nop
	addq	$32, %rsp
	popq	%rbp
	ret
	.seh_endproc
	.section	.text$_ZN7HashSetINSt7__cxx1112basic_stringIcSt11char_traitsIcESaIcEEEEC1Ei,"x"
	.linkonce discard
	.align 2
	.globl	_ZN7HashSetINSt7__cxx1112basic_stringIcSt11char_traitsIcESaIcEEEEC1Ei
	.def	_ZN7HashSetINSt7__cxx1112basic_stringIcSt11char_traitsIcESaIcEEEEC1Ei;	.scl	2;	.type	32;	.endef
	.seh_proc	_ZN7HashSetINSt7__cxx1112basic_stringIcSt11char_traitsIcESaIcEEEEC1Ei
_ZN7HashSetINSt7__cxx1112basic_stringIcSt11char_traitsIcESaIcEEEEC1Ei:
.LFB3731:
	pushq	%rbp
	.seh_pushreg	%rbp
	pushq	%rbx
	.seh_pushreg	%rbx
	subq	$40, %rsp
	.seh_stackalloc	40
	leaq	32(%rsp), %rbp
	.seh_setframe	%rbp, 32
	.seh_endprologue
	movq	%rcx, 32(%rbp)
	movl	%edx, 40(%rbp)
	movq	32(%rbp), %rax
	movq	%rax, %rcx
	call	_ZNSt6vectorINSt7__cxx114listINS0_12basic_stringIcSt11char_traitsIcESaIcEEESaIS6_EEESaIS8_EEC1Ev
	movq	32(%rbp), %rax
	movl	40(%rbp), %edx
	movl	%edx, 24(%rax)
	movq	32(%rbp), %rax
	movl	$0, 28(%rax)
	movq	32(%rbp), %rax
	movq	32(%rbp), %rdx
	movl	24(%rdx), %edx
	movslq	%edx, %rdx
	movq	%rax, %rcx
.LEHB27:
	call	_ZNSt6vectorINSt7__cxx114listINS0_12basic_stringIcSt11char_traitsIcESaIcEEESaIS6_EEESaIS8_EE6resizeEy
.LEHE27:
	jmp	.L94
.L93:
	movq	%rax, %rbx
	movq	32(%rbp), %rax
	movq	%rax, %rcx
	call	_ZNSt6vectorINSt7__cxx114listINS0_12basic_stringIcSt11char_traitsIcESaIcEEESaIS6_EEESaIS8_EED1Ev
	movq	%rbx, %rax
	movq	%rax, %rcx
.LEHB28:
	call	_Unwind_Resume
	nop
.LEHE28:
.L94:
	addq	$40, %rsp
	popq	%rbx
	popq	%rbp
	ret
	.seh_handler	__gxx_personality_seh0, @unwind, @except
	.seh_handlerdata
.LLSDA3731:
	.byte	0xff
	.byte	0xff
	.byte	0x1
	.uleb128 .LLSDACSE3731-.LLSDACSB3731
.LLSDACSB3731:
	.uleb128 .LEHB27-.LFB3731
	.uleb128 .LEHE27-.LEHB27
	.uleb128 .L93-.LFB3731
	.uleb128 0
	.uleb128 .LEHB28-.LFB3731
	.uleb128 .LEHE28-.LEHB28
	.uleb128 0
	.uleb128 0
.LLSDACSE3731:
	.section	.text$_ZN7HashSetINSt7__cxx1112basic_stringIcSt11char_traitsIcESaIcEEEEC1Ei,"x"
	.linkonce discard
	.seh_endproc
	.section	.text$_ZNSt6vectorINSt7__cxx114listINS0_12basic_stringIcSt11char_traitsIcESaIcEEESaIS6_EEESaIS8_EED1Ev,"x"
	.linkonce discard
	.align 2
	.globl	_ZNSt6vectorINSt7__cxx114listINS0_12basic_stringIcSt11char_traitsIcESaIcEEESaIS6_EEESaIS8_EED1Ev
	.def	_ZNSt6vectorINSt7__cxx114listINS0_12basic_stringIcSt11char_traitsIcESaIcEEESaIS6_EEESaIS8_EED1Ev;	.scl	2;	.type	32;	.endef
	.seh_proc	_ZNSt6vectorINSt7__cxx114listINS0_12basic_stringIcSt11char_traitsIcESaIcEEESaIS6_EEESaIS8_EED1Ev
_ZNSt6vectorINSt7__cxx114listINS0_12basic_stringIcSt11char_traitsIcESaIcEEESaIS6_EEESaIS8_EED1Ev:
.LFB3734:
	pushq	%rbp
	.seh_pushreg	%rbp
	movq	%rsp, %rbp
	.seh_setframe	%rbp, 0
	subq	$64, %rsp
	.seh_stackalloc	64
	.seh_endprologue
	movq	%rcx, 16(%rbp)
	movq	16(%rbp), %rax
	movq	%rax, %rcx
	call	_ZNSt12_Vector_baseINSt7__cxx114listINS0_12basic_stringIcSt11char_traitsIcESaIcEEESaIS6_EEESaIS8_EE19_M_get_Tp_allocatorEv
	movq	16(%rbp), %rdx
	movq	8(%rdx), %rdx
	movq	16(%rbp), %rcx
	movq	(%rcx), %rcx
	movq	%rcx, -8(%rbp)
	movq	%rdx, -16(%rbp)
	movq	%rax, -24(%rbp)
	movq	-16(%rbp), %rdx
	movq	-8(%rbp), %rax
	movq	%rax, %rcx
	call	_ZSt8_DestroyIPNSt7__cxx114listINS0_12basic_stringIcSt11char_traitsIcESaIcEEESaIS6_EEEEvT_SA_
	nop
	movq	16(%rbp), %rax
	movq	%rax, %rcx
	call	_ZNSt12_Vector_baseINSt7__cxx114listINS0_12basic_stringIcSt11char_traitsIcESaIcEEESaIS6_EEESaIS8_EED2Ev
	nop
	addq	$64, %rsp
	popq	%rbp
	ret
	.seh_handler	__gxx_personality_seh0, @unwind, @except
	.seh_handlerdata
.LLSDA3734:
	.byte	0xff
	.byte	0xff
	.byte	0x1
	.uleb128 .LLSDACSE3734-.LLSDACSB3734
.LLSDACSB3734:
.LLSDACSE3734:
	.section	.text$_ZNSt6vectorINSt7__cxx114listINS0_12basic_stringIcSt11char_traitsIcESaIcEEESaIS6_EEESaIS8_EED1Ev,"x"
	.linkonce discard
	.seh_endproc
	.section .rdata,"dr"
	.align 8
.LC18:
	.ascii "basic_string: construction from null is not valid\0"
	.section	.text$_ZNSt7__cxx1112basic_stringIcSt11char_traitsIcESaIcEEC1IS3_EEPKcRKS3_,"x"
	.linkonce discard
	.align 2
	.globl	_ZNSt7__cxx1112basic_stringIcSt11char_traitsIcESaIcEEC1IS3_EEPKcRKS3_
	.def	_ZNSt7__cxx1112basic_stringIcSt11char_traitsIcESaIcEEC1IS3_EEPKcRKS3_;	.scl	2;	.type	32;	.endef
	.seh_proc	_ZNSt7__cxx1112basic_stringIcSt11char_traitsIcESaIcEEC1IS3_EEPKcRKS3_
_ZNSt7__cxx1112basic_stringIcSt11char_traitsIcESaIcEEC1IS3_EEPKcRKS3_:
.LFB3740:
	pushq	%rbp
	.seh_pushreg	%rbp
	pushq	%rsi
	.seh_pushreg	%rsi
	pushq	%rbx
	.seh_pushreg	%rbx
	subq	$48, %rsp
	.seh_stackalloc	48
	leaq	48(%rsp), %rbp
	.seh_setframe	%rbp, 48
	.seh_endprologue
	movq	%rcx, 32(%rbp)
	movq	%rdx, 40(%rbp)
	movq	%r8, 48(%rbp)
	movq	32(%rbp), %rbx
	movq	32(%rbp), %rax
	movq	%rax, %rcx
	call	_ZNSt7__cxx1112basic_stringIcSt11char_traitsIcESaIcEE13_M_local_dataEv
	movq	48(%rbp), %rdx
	movq	%rdx, %r8
	movq	%rax, %rdx
	movq	%rbx, %rcx
	call	_ZNSt7__cxx1112basic_stringIcSt11char_traitsIcESaIcEE12_Alloc_hiderC1EPcRKS3_
	cmpq	$0, 40(%rbp)
	jne	.L97
	leaq	.LC18(%rip), %rax
	movq	%rax, %rcx
.LEHB29:
	call	_ZSt19__throw_logic_errorPKc
.L97:
	movq	40(%rbp), %rax
	movq	%rax, %rcx
	call	_ZNSt11char_traitsIcE6lengthEPKc
	movq	40(%rbp), %rdx
	addq	%rdx, %rax
	movq	%rax, -8(%rbp)
	movq	-8(%rbp), %rcx
	movq	40(%rbp), %rdx
	movq	32(%rbp), %rax
	movl	%esi, %r9d
	movq	%rcx, %r8
	movq	%rax, %rcx
	call	_ZNSt7__cxx1112basic_stringIcSt11char_traitsIcESaIcEE12_M_constructIPKcEEvT_S8_St20forward_iterator_tag
.LEHE29:
	jmp	.L100
.L99:
	movq	%rax, %rbx
	movq	32(%rbp), %rax
	movq	%rax, %rcx
	call	_ZNSt7__cxx1112basic_stringIcSt11char_traitsIcESaIcEE12_Alloc_hiderD1Ev
	movq	%rbx, %rax
	movq	%rax, %rcx
.LEHB30:
	call	_Unwind_Resume
	nop
.LEHE30:
.L100:
	addq	$48, %rsp
	popq	%rbx
	popq	%rsi
	popq	%rbp
	ret
	.seh_handler	__gxx_personality_seh0, @unwind, @except
	.seh_handlerdata
.LLSDA3740:
	.byte	0xff
	.byte	0xff
	.byte	0x1
	.uleb128 .LLSDACSE3740-.LLSDACSB3740
.LLSDACSB3740:
	.uleb128 .LEHB29-.LFB3740
	.uleb128 .LEHE29-.LEHB29
	.uleb128 .L99-.LFB3740
	.uleb128 0
	.uleb128 .LEHB30-.LFB3740
	.uleb128 .LEHE30-.LEHB30
	.uleb128 0
	.uleb128 0
.LLSDACSE3740:
	.section	.text$_ZNSt7__cxx1112basic_stringIcSt11char_traitsIcESaIcEEC1IS3_EEPKcRKS3_,"x"
	.linkonce discard
	.seh_endproc
	.section	.text$_ZN7HashSetINSt7__cxx1112basic_stringIcSt11char_traitsIcESaIcEEEE6insertERKS5_,"x"
	.linkonce discard
	.align 2
	.globl	_ZN7HashSetINSt7__cxx1112basic_stringIcSt11char_traitsIcESaIcEEEE6insertERKS5_
	.def	_ZN7HashSetINSt7__cxx1112basic_stringIcSt11char_traitsIcESaIcEEEE6insertERKS5_;	.scl	2;	.type	32;	.endef
	.seh_proc	_ZN7HashSetINSt7__cxx1112basic_stringIcSt11char_traitsIcESaIcEEEE6insertERKS5_
_ZN7HashSetINSt7__cxx1112basic_stringIcSt11char_traitsIcESaIcEEEE6insertERKS5_:
.LFB3741:
	pushq	%rbp
	.seh_pushreg	%rbp
	movq	%rsp, %rbp
	.seh_setframe	%rbp, 0
	subq	$80, %rsp
	.seh_stackalloc	80
	.seh_endprologue
	movq	%rcx, 16(%rbp)
	movq	%rdx, 24(%rbp)
	movq	24(%rbp), %rdx
	movq	16(%rbp), %rax
	movq	%rax, %rcx
	call	_ZNK7HashSetINSt7__cxx1112basic_stringIcSt11char_traitsIcESaIcEEEE14getBucketIndexERKS5_
	movl	%eax, -4(%rbp)
	movq	16(%rbp), %rax
	movl	-4(%rbp), %edx
	movslq	%edx, %rdx
	movq	%rax, %rcx
	call	_ZNSt6vectorINSt7__cxx114listINS0_12basic_stringIcSt11char_traitsIcESaIcEEESaIS6_EEESaIS8_EEixEy
	movq	%rax, -16(%rbp)
	movq	-16(%rbp), %rax
	movq	%rax, -24(%rbp)
	movq	-24(%rbp), %rax
	movq	%rax, %rcx
	call	_ZNSt7__cxx114listINS_12basic_stringIcSt11char_traitsIcESaIcEEESaIS5_EE5beginEv
	movq	%rax, -40(%rbp)
	movq	-24(%rbp), %rax
	movq	%rax, %rcx
	call	_ZNSt7__cxx114listINS_12basic_stringIcSt11char_traitsIcESaIcEEESaIS5_EE3endEv
	movq	%rax, -48(%rbp)
	jmp	.L102
.L105:
	leaq	-40(%rbp), %rax
	movq	%rax, %rcx
	call	_ZNKSt14_List_iteratorINSt7__cxx1112basic_stringIcSt11char_traitsIcESaIcEEEEdeEv
	movq	%rax, -32(%rbp)
	movq	24(%rbp), %rdx
	movq	-32(%rbp), %rax
	movq	%rax, %rcx
	call	_ZSteqIcSt11char_traitsIcESaIcEEbRKNSt7__cxx1112basic_stringIT_T0_T1_EESA_
	testb	%al, %al
	jne	.L106
	leaq	-40(%rbp), %rax
	movq	%rax, %rcx
	call	_ZNSt14_List_iteratorINSt7__cxx1112basic_stringIcSt11char_traitsIcESaIcEEEEppEv
.L102:
	leaq	-48(%rbp), %rdx
	leaq	-40(%rbp), %rax
	movq	%rax, %rcx
	call	_ZStneRKSt14_List_iteratorINSt7__cxx1112basic_stringIcSt11char_traitsIcESaIcEEEES8_
	testb	%al, %al
	jne	.L105
	movq	24(%rbp), %rdx
	movq	-16(%rbp), %rax
	movq	%rax, %rcx
	call	_ZNSt7__cxx114listINS_12basic_stringIcSt11char_traitsIcESaIcEEESaIS5_EE10push_frontERKS5_
	movq	16(%rbp), %rax
	movl	28(%rax), %eax
	leal	1(%rax), %edx
	movq	16(%rbp), %rax
	movl	%edx, 28(%rax)
	jmp	.L101
.L106:
	nop
.L101:
	addq	$80, %rsp
	popq	%rbp
	ret
	.seh_endproc
	.section	.text$_ZNK7HashSetINSt7__cxx1112basic_stringIcSt11char_traitsIcESaIcEEEE4sizeEv,"x"
	.linkonce discard
	.align 2
	.globl	_ZNK7HashSetINSt7__cxx1112basic_stringIcSt11char_traitsIcESaIcEEEE4sizeEv
	.def	_ZNK7HashSetINSt7__cxx1112basic_stringIcSt11char_traitsIcESaIcEEEE4sizeEv;	.scl	2;	.type	32;	.endef
	.seh_proc	_ZNK7HashSetINSt7__cxx1112basic_stringIcSt11char_traitsIcESaIcEEEE4sizeEv
_ZNK7HashSetINSt7__cxx1112basic_stringIcSt11char_traitsIcESaIcEEEE4sizeEv:
.LFB3742:
	pushq	%rbp
	.seh_pushreg	%rbp
	movq	%rsp, %rbp
	.seh_setframe	%rbp, 0
	.seh_endprologue
	movq	%rcx, 16(%rbp)
	movq	16(%rbp), %rax
	movl	28(%rax), %eax
	popq	%rbp
	ret
	.seh_endproc
	.section .rdata,"dr"
.LC19:
	.ascii "--- HashSet Internals ---\0"
.LC20:
	.ascii "Bucket \0"
.LC21:
	.ascii ": \0"
.LC22:
	.ascii " -> \0"
.LC23:
	.ascii "nullptr\0"
.LC24:
	.ascii "----------------------\0"
	.section	.text$_ZNK7HashSetINSt7__cxx1112basic_stringIcSt11char_traitsIcESaIcEEEE7displayEv,"x"
	.linkonce discard
	.align 2
	.globl	_ZNK7HashSetINSt7__cxx1112basic_stringIcSt11char_traitsIcESaIcEEEE7displayEv
	.def	_ZNK7HashSetINSt7__cxx1112basic_stringIcSt11char_traitsIcESaIcEEEE7displayEv;	.scl	2;	.type	32;	.endef
	.seh_proc	_ZNK7HashSetINSt7__cxx1112basic_stringIcSt11char_traitsIcESaIcEEEE7displayEv
_ZNK7HashSetINSt7__cxx1112basic_stringIcSt11char_traitsIcESaIcEEEE7displayEv:
.LFB3743:
	pushq	%rbp
	.seh_pushreg	%rbp
	movq	%rsp, %rbp
	.seh_setframe	%rbp, 0
	subq	$80, %rsp
	.seh_stackalloc	80
	.seh_endprologue
	movq	%rcx, 16(%rbp)
	leaq	.LC19(%rip), %rax
	movq	%rax, %rdx
	movq	.refptr._ZSt4cout(%rip), %rax
	movq	%rax, %rcx
	call	_ZStlsISt11char_traitsIcEERSt13basic_ostreamIcT_ES5_PKc
	movq	%rax, %rcx
	movq	.refptr._ZSt4endlIcSt11char_traitsIcEERSt13basic_ostreamIT_T0_ES6_(%rip), %rax
	movq	%rax, %rdx
	call	_ZNSolsEPFRSoS_E
	movl	$0, -4(%rbp)
	jmp	.L110
.L113:
	leaq	.LC20(%rip), %rax
	movq	%rax, %rdx
	movq	.refptr._ZSt4cout(%rip), %rax
	movq	%rax, %rcx
	call	_ZStlsISt11char_traitsIcEERSt13basic_ostreamIcT_ES5_PKc
	movq	%rax, %rcx
	movl	-4(%rbp), %eax
	movl	%eax, %edx
	call	_ZNSolsEi
	movq	%rax, %rcx
	leaq	.LC21(%rip), %rax
	movq	%rax, %rdx
	call	_ZStlsISt11char_traitsIcEERSt13basic_ostreamIcT_ES5_PKc
	movq	16(%rbp), %rax
	movl	-4(%rbp), %edx
	movslq	%edx, %rdx
	movq	%rax, %rcx
	call	_ZNKSt6vectorINSt7__cxx114listINS0_12basic_stringIcSt11char_traitsIcESaIcEEESaIS6_EEESaIS8_EEixEy
	movq	%rax, -16(%rbp)
	movq	-16(%rbp), %rax
	movq	%rax, %rcx
	call	_ZNKSt7__cxx114listINS_12basic_stringIcSt11char_traitsIcESaIcEEESaIS5_EE5beginEv
	movq	%rax, -32(%rbp)
	movq	-16(%rbp), %rax
	movq	%rax, %rcx
	call	_ZNKSt7__cxx114listINS_12basic_stringIcSt11char_traitsIcESaIcEEESaIS5_EE3endEv
	movq	%rax, -40(%rbp)
	jmp	.L111
.L112:
	leaq	-32(%rbp), %rax
	movq	%rax, %rcx
	call	_ZNKSt20_List_const_iteratorINSt7__cxx1112basic_stringIcSt11char_traitsIcESaIcEEEEdeEv
	movq	%rax, -24(%rbp)
	movq	-24(%rbp), %rax
	movq	%rax, %rdx
	movq	.refptr._ZSt4cout(%rip), %rax
	movq	%rax, %rcx
	call	_ZStlsIcSt11char_traitsIcESaIcEERSt13basic_ostreamIT_T0_ES7_RKNSt7__cxx1112basic_stringIS4_S5_T1_EE
	movq	%rax, %rcx
	leaq	.LC22(%rip), %rax
	movq	%rax, %rdx
	call	_ZStlsISt11char_traitsIcEERSt13basic_ostreamIcT_ES5_PKc
	leaq	-32(%rbp), %rax
	movq	%rax, %rcx
	call	_ZNSt20_List_const_iteratorINSt7__cxx1112basic_stringIcSt11char_traitsIcESaIcEEEEppEv
.L111:
	leaq	-40(%rbp), %rdx
	leaq	-32(%rbp), %rax
	movq	%rax, %rcx
	call	_ZStneRKSt20_List_const_iteratorINSt7__cxx1112basic_stringIcSt11char_traitsIcESaIcEEEES8_
	testb	%al, %al
	jne	.L112
	leaq	.LC23(%rip), %rax
	movq	%rax, %rdx
	movq	.refptr._ZSt4cout(%rip), %rax
	movq	%rax, %rcx
	call	_ZStlsISt11char_traitsIcEERSt13basic_ostreamIcT_ES5_PKc
	movq	%rax, %rcx
	movq	.refptr._ZSt4endlIcSt11char_traitsIcEERSt13basic_ostreamIT_T0_ES6_(%rip), %rax
	movq	%rax, %rdx
	call	_ZNSolsEPFRSoS_E
	addl	$1, -4(%rbp)
.L110:
	movq	16(%rbp), %rax
	movl	24(%rax), %eax
	cmpl	%eax, -4(%rbp)
	jl	.L113
	leaq	.LC24(%rip), %rax
	movq	%rax, %rdx
	movq	.refptr._ZSt4cout(%rip), %rax
	movq	%rax, %rcx
	call	_ZStlsISt11char_traitsIcEERSt13basic_ostreamIcT_ES5_PKc
	movq	%rax, %rcx
	movq	.refptr._ZSt4endlIcSt11char_traitsIcEERSt13basic_ostreamIT_T0_ES6_(%rip), %rax
	movq	%rax, %rdx
	call	_ZNSolsEPFRSoS_E
	nop
	addq	$80, %rsp
	popq	%rbp
	ret
	.seh_endproc
	.section	.text$_ZNK7HashSetINSt7__cxx1112basic_stringIcSt11char_traitsIcESaIcEEEE8containsERKS5_,"x"
	.linkonce discard
	.align 2
	.globl	_ZNK7HashSetINSt7__cxx1112basic_stringIcSt11char_traitsIcESaIcEEEE8containsERKS5_
	.def	_ZNK7HashSetINSt7__cxx1112basic_stringIcSt11char_traitsIcESaIcEEEE8containsERKS5_;	.scl	2;	.type	32;	.endef
	.seh_proc	_ZNK7HashSetINSt7__cxx1112basic_stringIcSt11char_traitsIcESaIcEEEE8containsERKS5_
_ZNK7HashSetINSt7__cxx1112basic_stringIcSt11char_traitsIcESaIcEEEE8containsERKS5_:
.LFB3744:
	pushq	%rbp
	.seh_pushreg	%rbp
	movq	%rsp, %rbp
	.seh_setframe	%rbp, 0
	subq	$80, %rsp
	.seh_stackalloc	80
	.seh_endprologue
	movq	%rcx, 16(%rbp)
	movq	%rdx, 24(%rbp)
	movq	24(%rbp), %rdx
	movq	16(%rbp), %rax
	movq	%rax, %rcx
	call	_ZNK7HashSetINSt7__cxx1112basic_stringIcSt11char_traitsIcESaIcEEEE14getBucketIndexERKS5_
	movl	%eax, -4(%rbp)
	movq	16(%rbp), %rax
	movl	-4(%rbp), %edx
	movslq	%edx, %rdx
	movq	%rax, %rcx
	call	_ZNKSt6vectorINSt7__cxx114listINS0_12basic_stringIcSt11char_traitsIcESaIcEEESaIS6_EEESaIS8_EEixEy
	movq	%rax, -16(%rbp)
	movq	-16(%rbp), %rax
	movq	%rax, -24(%rbp)
	movq	-24(%rbp), %rax
	movq	%rax, %rcx
	call	_ZNKSt7__cxx114listINS_12basic_stringIcSt11char_traitsIcESaIcEEESaIS5_EE5beginEv
	movq	%rax, -40(%rbp)
	movq	-24(%rbp), %rax
	movq	%rax, %rcx
	call	_ZNKSt7__cxx114listINS_12basic_stringIcSt11char_traitsIcESaIcEEESaIS5_EE3endEv
	movq	%rax, -48(%rbp)
	jmp	.L115
.L118:
	leaq	-40(%rbp), %rax
	movq	%rax, %rcx
	call	_ZNKSt20_List_const_iteratorINSt7__cxx1112basic_stringIcSt11char_traitsIcESaIcEEEEdeEv
	movq	%rax, -32(%rbp)
	movq	24(%rbp), %rdx
	movq	-32(%rbp), %rax
	movq	%rax, %rcx
	call	_ZSteqIcSt11char_traitsIcESaIcEEbRKNSt7__cxx1112basic_stringIT_T0_T1_EESA_
	testb	%al, %al
	je	.L116
	movl	$1, %eax
	jmp	.L117
.L116:
	leaq	-40(%rbp), %rax
	movq	%rax, %rcx
	call	_ZNSt20_List_const_iteratorINSt7__cxx1112basic_stringIcSt11char_traitsIcESaIcEEEEppEv
.L115:
	leaq	-48(%rbp), %rdx
	leaq	-40(%rbp), %rax
	movq	%rax, %rcx
	call	_ZStneRKSt20_List_const_iteratorINSt7__cxx1112basic_stringIcSt11char_traitsIcESaIcEEEES8_
	testb	%al, %al
	jne	.L118
	movl	$0, %eax
.L117:
	addq	$80, %rsp
	popq	%rbp
	ret
	.seh_endproc
	.section	.text$_ZN7HashSetINSt7__cxx1112basic_stringIcSt11char_traitsIcESaIcEEEE6removeERKS5_,"x"
	.linkonce discard
	.align 2
	.globl	_ZN7HashSetINSt7__cxx1112basic_stringIcSt11char_traitsIcESaIcEEEE6removeERKS5_
	.def	_ZN7HashSetINSt7__cxx1112basic_stringIcSt11char_traitsIcESaIcEEEE6removeERKS5_;	.scl	2;	.type	32;	.endef
	.seh_proc	_ZN7HashSetINSt7__cxx1112basic_stringIcSt11char_traitsIcESaIcEEEE6removeERKS5_
_ZN7HashSetINSt7__cxx1112basic_stringIcSt11char_traitsIcESaIcEEEE6removeERKS5_:
.LFB3745:
	pushq	%rbp
	.seh_pushreg	%rbp
	movq	%rsp, %rbp
	.seh_setframe	%rbp, 0
	subq	$64, %rsp
	.seh_stackalloc	64
	.seh_endprologue
	movq	%rcx, 16(%rbp)
	movq	%rdx, 24(%rbp)
	movq	24(%rbp), %rdx
	movq	16(%rbp), %rax
	movq	%rax, %rcx
	call	_ZNK7HashSetINSt7__cxx1112basic_stringIcSt11char_traitsIcESaIcEEEE14getBucketIndexERKS5_
	movl	%eax, -4(%rbp)
	movq	16(%rbp), %rax
	movl	-4(%rbp), %edx
	movslq	%edx, %rdx
	movq	%rax, %rcx
	call	_ZNSt6vectorINSt7__cxx114listINS0_12basic_stringIcSt11char_traitsIcESaIcEEESaIS6_EEESaIS8_EEixEy
	movq	%rax, -16(%rbp)
	movq	-16(%rbp), %rax
	movq	%rax, %rcx
	call	_ZNKSt7__cxx114listINS_12basic_stringIcSt11char_traitsIcESaIcEEESaIS5_EE4sizeEv
	movq	%rax, -24(%rbp)
	movq	24(%rbp), %rdx
	movq	-16(%rbp), %rax
	movq	%rax, %rcx
	call	_ZNSt7__cxx114listINS_12basic_stringIcSt11char_traitsIcESaIcEEESaIS5_EE6removeERKS5_
	movq	-16(%rbp), %rax
	movq	%rax, %rcx
	call	_ZNKSt7__cxx114listINS_12basic_stringIcSt11char_traitsIcESaIcEEESaIS5_EE4sizeEv
	cmpq	-24(%rbp), %rax
	setb	%al
	testb	%al, %al
	je	.L121
	movq	16(%rbp), %rax
	movl	28(%rax), %eax
	leal	-1(%rax), %edx
	movq	16(%rbp), %rax
	movl	%edx, 28(%rax)
.L121:
	nop
	addq	$64, %rsp
	popq	%rbp
	ret
	.seh_endproc
	.section	.text$_ZN9__gnu_cxx11char_traitsIcE2eqERKcS3_,"x"
	.linkonce discard
	.globl	_ZN9__gnu_cxx11char_traitsIcE2eqERKcS3_
	.def	_ZN9__gnu_cxx11char_traitsIcE2eqERKcS3_;	.scl	2;	.type	32;	.endef
	.seh_proc	_ZN9__gnu_cxx11char_traitsIcE2eqERKcS3_
_ZN9__gnu_cxx11char_traitsIcE2eqERKcS3_:
.LFB3746:
	pushq	%rbp
	.seh_pushreg	%rbp
	movq	%rsp, %rbp
	.seh_setframe	%rbp, 0
	.seh_endprologue
	movq	%rcx, 16(%rbp)
	movq	%rdx, 24(%rbp)
	movq	16(%rbp), %rax
	movzbl	(%rax), %edx
	movq	24(%rbp), %rax
	movzbl	(%rax), %eax
	cmpb	%al, %dl
	sete	%al
	popq	%rbp
	ret
	.seh_endproc
	.section	.text$_ZNSt15__new_allocatorIcED2Ev,"x"
	.linkonce discard
	.align 2
	.globl	_ZNSt15__new_allocatorIcED2Ev
	.def	_ZNSt15__new_allocatorIcED2Ev;	.scl	2;	.type	32;	.endef
	.seh_proc	_ZNSt15__new_allocatorIcED2Ev
_ZNSt15__new_allocatorIcED2Ev:
.LFB3800:
	pushq	%rbp
	.seh_pushreg	%rbp
	movq	%rsp, %rbp
	.seh_setframe	%rbp, 0
	.seh_endprologue
	movq	%rcx, 16(%rbp)
	nop
	popq	%rbp
	ret
	.seh_endproc
	.section	.text$_ZZNSt7__cxx1112basic_stringIcSt11char_traitsIcESaIcEE12_M_constructIPKcEEvT_S8_St20forward_iterator_tagEN6_GuardC1EPS4_,"x"
	.linkonce discard
	.align 2
	.globl	_ZZNSt7__cxx1112basic_stringIcSt11char_traitsIcESaIcEE12_M_constructIPKcEEvT_S8_St20forward_iterator_tagEN6_GuardC1EPS4_
	.def	_ZZNSt7__cxx1112basic_stringIcSt11char_traitsIcESaIcEE12_M_constructIPKcEEvT_S8_St20forward_iterator_tagEN6_GuardC1EPS4_;	.scl	2;	.type	32;	.endef
	.seh_proc	_ZZNSt7__cxx1112basic_stringIcSt11char_traitsIcESaIcEE12_M_constructIPKcEEvT_S8_St20forward_iterator_tagEN6_GuardC1EPS4_
_ZZNSt7__cxx1112basic_stringIcSt11char_traitsIcESaIcEE12_M_constructIPKcEEvT_S8_St20forward_iterator_tagEN6_GuardC1EPS4_:
.LFB3808:
	pushq	%rbp
	.seh_pushreg	%rbp
	movq	%rsp, %rbp
	.seh_setframe	%rbp, 0
	.seh_endprologue
	movq	%rcx, 16(%rbp)
	movq	%rdx, 24(%rbp)
	movq	16(%rbp), %rax
	movq	24(%rbp), %rdx
	movq	%rdx, (%rax)
	nop
	popq	%rbp
	ret
	.seh_endproc
	.section	.text$_ZZNSt7__cxx1112basic_stringIcSt11char_traitsIcESaIcEE12_M_constructIPKcEEvT_S8_St20forward_iterator_tagEN6_GuardD1Ev,"x"
	.linkonce discard
	.align 2
	.globl	_ZZNSt7__cxx1112basic_stringIcSt11char_traitsIcESaIcEE12_M_constructIPKcEEvT_S8_St20forward_iterator_tagEN6_GuardD1Ev
	.def	_ZZNSt7__cxx1112basic_stringIcSt11char_traitsIcESaIcEE12_M_constructIPKcEEvT_S8_St20forward_iterator_tagEN6_GuardD1Ev;	.scl	2;	.type	32;	.endef
	.seh_proc	_ZZNSt7__cxx1112basic_stringIcSt11char_traitsIcESaIcEE12_M_constructIPKcEEvT_S8_St20forward_iterator_tagEN6_GuardD1Ev
_ZZNSt7__cxx1112basic_stringIcSt11char_traitsIcESaIcEE12_M_constructIPKcEEvT_S8_St20forward_iterator_tagEN6_GuardD1Ev:
.LFB3811:
	pushq	%rbp
	.seh_pushreg	%rbp
	movq	%rsp, %rbp
	.seh_setframe	%rbp, 0
	subq	$32, %rsp
	.seh_stackalloc	32
	.seh_endprologue
	movq	%rcx, 16(%rbp)
	movq	16(%rbp), %rax
	movq	(%rax), %rax
	testq	%rax, %rax
	je	.L128
	movq	16(%rbp), %rax
	movq	(%rax), %rax
	movq	%rax, %rcx
	call	_ZNSt7__cxx1112basic_stringIcSt11char_traitsIcESaIcEE10_M_disposeEv
.L128:
	nop
	addq	$32, %rsp
	popq	%rbp
	ret
	.seh_handler	__gxx_personality_seh0, @unwind, @except
	.seh_handlerdata
.LLSDA3811:
	.byte	0xff
	.byte	0xff
	.byte	0x1
	.uleb128 .LLSDACSE3811-.LLSDACSB3811
.LLSDACSB3811:
.LLSDACSE3811:
	.section	.text$_ZZNSt7__cxx1112basic_stringIcSt11char_traitsIcESaIcEE12_M_constructIPKcEEvT_S8_St20forward_iterator_tagEN6_GuardD1Ev,"x"
	.linkonce discard
	.seh_endproc
	.section	.text$_ZNSt7__cxx1112basic_stringIcSt11char_traitsIcESaIcEE12_M_constructIPKcEEvT_S8_St20forward_iterator_tag,"x"
	.linkonce discard
	.align 2
	.globl	_ZNSt7__cxx1112basic_stringIcSt11char_traitsIcESaIcEE12_M_constructIPKcEEvT_S8_St20forward_iterator_tag
	.def	_ZNSt7__cxx1112basic_stringIcSt11char_traitsIcESaIcEE12_M_constructIPKcEEvT_S8_St20forward_iterator_tag;	.scl	2;	.type	32;	.endef
	.seh_proc	_ZNSt7__cxx1112basic_stringIcSt11char_traitsIcESaIcEE12_M_constructIPKcEEvT_S8_St20forward_iterator_tag
_ZNSt7__cxx1112basic_stringIcSt11char_traitsIcESaIcEE12_M_constructIPKcEEvT_S8_St20forward_iterator_tag:
.LFB3805:
	pushq	%rbp
	.seh_pushreg	%rbp
	pushq	%rbx
	.seh_pushreg	%rbx
	subq	$104, %rsp
	.seh_stackalloc	104
	leaq	96(%rsp), %rbp
	.seh_setframe	%rbp, 96
	.seh_endprologue
	movq	%rcx, 32(%rbp)
	movq	%rdx, 40(%rbp)
	movq	%r8, 48(%rbp)
	movq	40(%rbp), %rax
	movq	%rax, -56(%rbp)
	movq	48(%rbp), %rax
	movq	%rax, -8(%rbp)
	nop
	movq	-56(%rbp), %rax
	movq	%rax, -16(%rbp)
	movq	-8(%rbp), %rax
	movq	%rax, -24(%rbp)
	movq	-24(%rbp), %rax
	subq	-16(%rbp), %rax
	nop
	movq	%rax, -40(%rbp)
	movq	-40(%rbp), %rax
	cmpq	$15, %rax
	jbe	.L133
	leaq	-40(%rbp), %rdx
	movq	32(%rbp), %rax
	movl	$0, %r8d
	movq	%rax, %rcx
.LEHB31:
	call	_ZNSt7__cxx1112basic_stringIcSt11char_traitsIcESaIcEE9_M_createERyy
.LEHE31:
	movq	%rax, %rdx
	movq	32(%rbp), %rax
	movq	%rax, %rcx
	call	_ZNSt7__cxx1112basic_stringIcSt11char_traitsIcESaIcEE7_M_dataEPc
	movq	-40(%rbp), %rdx
	movq	32(%rbp), %rax
	movq	%rax, %rcx
	call	_ZNSt7__cxx1112basic_stringIcSt11char_traitsIcESaIcEE11_M_capacityEy
	jmp	.L134
.L133:
	movq	32(%rbp), %rax
	movq	%rax, -32(%rbp)
	nop
.L134:
	movq	32(%rbp), %rdx
	leaq	-48(%rbp), %rax
	movq	%rax, %rcx
	call	_ZZNSt7__cxx1112basic_stringIcSt11char_traitsIcESaIcEE12_M_constructIPKcEEvT_S8_St20forward_iterator_tagEN6_GuardC1EPS4_
	movq	32(%rbp), %rax
	movq	%rax, %rcx
	call	_ZNKSt7__cxx1112basic_stringIcSt11char_traitsIcESaIcEE7_M_dataEv
	movq	%rax, %rcx
	movq	48(%rbp), %rdx
	movq	40(%rbp), %rax
	movq	%rdx, %r8
	movq	%rax, %rdx
	call	_ZNSt7__cxx1112basic_stringIcSt11char_traitsIcESaIcEE13_S_copy_charsEPcPKcS7_
	movq	$0, -48(%rbp)
	movq	-40(%rbp), %rdx
	movq	32(%rbp), %rax
	movq	%rax, %rcx
.LEHB32:
	call	_ZNSt7__cxx1112basic_stringIcSt11char_traitsIcESaIcEE13_M_set_lengthEy
.LEHE32:
	leaq	-48(%rbp), %rax
	movq	%rax, %rcx
	call	_ZZNSt7__cxx1112basic_stringIcSt11char_traitsIcESaIcEE12_M_constructIPKcEEvT_S8_St20forward_iterator_tagEN6_GuardD1Ev
	jmp	.L137
.L136:
	movq	%rax, %rbx
	leaq	-48(%rbp), %rax
	movq	%rax, %rcx
	call	_ZZNSt7__cxx1112basic_stringIcSt11char_traitsIcESaIcEE12_M_constructIPKcEEvT_S8_St20forward_iterator_tagEN6_GuardD1Ev
	movq	%rbx, %rax
	movq	%rax, %rcx
.LEHB33:
	call	_Unwind_Resume
	nop
.LEHE33:
.L137:
	addq	$104, %rsp
	popq	%rbx
	popq	%rbp
	ret
	.seh_handler	__gxx_personality_seh0, @unwind, @except
	.seh_handlerdata
.LLSDA3805:
	.byte	0xff
	.byte	0xff
	.byte	0x1
	.uleb128 .LLSDACSE3805-.LLSDACSB3805
.LLSDACSB3805:
	.uleb128 .LEHB31-.LFB3805
	.uleb128 .LEHE31-.LEHB31
	.uleb128 0
	.uleb128 0
	.uleb128 .LEHB32-.LFB3805
	.uleb128 .LEHE32-.LEHB32
	.uleb128 .L136-.LFB3805
	.uleb128 0
	.uleb128 .LEHB33-.LFB3805
	.uleb128 .LEHE33-.LEHB33
	.uleb128 0
	.uleb128 0
.LLSDACSE3805:
	.section	.text$_ZNSt7__cxx1112basic_stringIcSt11char_traitsIcESaIcEE12_M_constructIPKcEEvT_S8_St20forward_iterator_tag,"x"
	.linkonce discard
	.seh_endproc
	.section	.text$_ZNSt12_Vector_baseINSt7__cxx114listINS0_12basic_stringIcSt11char_traitsIcESaIcEEESaIS6_EEESaIS8_EE12_Vector_implC1Ev,"x"
	.linkonce discard
	.align 2
	.globl	_ZNSt12_Vector_baseINSt7__cxx114listINS0_12basic_stringIcSt11char_traitsIcESaIcEEESaIS6_EEESaIS8_EE12_Vector_implC1Ev
	.def	_ZNSt12_Vector_baseINSt7__cxx114listINS0_12basic_stringIcSt11char_traitsIcESaIcEEESaIS6_EEESaIS8_EE12_Vector_implC1Ev;	.scl	2;	.type	32;	.endef
	.seh_proc	_ZNSt12_Vector_baseINSt7__cxx114listINS0_12basic_stringIcSt11char_traitsIcESaIcEEESaIS6_EEESaIS8_EE12_Vector_implC1Ev
_ZNSt12_Vector_baseINSt7__cxx114listINS0_12basic_stringIcSt11char_traitsIcESaIcEEESaIS6_EEESaIS8_EE12_Vector_implC1Ev:
.LFB3862:
	pushq	%rbp
	.seh_pushreg	%rbp
	movq	%rsp, %rbp
	.seh_setframe	%rbp, 0
	subq	$48, %rsp
	.seh_stackalloc	48
	.seh_endprologue
	movq	%rcx, 16(%rbp)
	movq	16(%rbp), %rax
	movq	%rax, -8(%rbp)
	movq	-8(%rbp), %rax
	movq	%rax, -16(%rbp)
	nop
	nop
	movq	16(%rbp), %rax
	movq	%rax, %rcx
	call	_ZNSt12_Vector_baseINSt7__cxx114listINS0_12basic_stringIcSt11char_traitsIcESaIcEEESaIS6_EEESaIS8_EE17_Vector_impl_dataC2Ev
	nop
	addq	$48, %rsp
	popq	%rbp
	ret
	.seh_endproc
	.section	.text$_ZNSt12_Vector_baseINSt7__cxx114listINS0_12basic_stringIcSt11char_traitsIcESaIcEEESaIS6_EEESaIS8_EED2Ev,"x"
	.linkonce discard
	.align 2
	.globl	_ZNSt12_Vector_baseINSt7__cxx114listINS0_12basic_stringIcSt11char_traitsIcESaIcEEESaIS6_EEESaIS8_EED2Ev
	.def	_ZNSt12_Vector_baseINSt7__cxx114listINS0_12basic_stringIcSt11char_traitsIcESaIcEEESaIS6_EEESaIS8_EED2Ev;	.scl	2;	.type	32;	.endef
	.seh_proc	_ZNSt12_Vector_baseINSt7__cxx114listINS0_12basic_stringIcSt11char_traitsIcESaIcEEESaIS6_EEESaIS8_EED2Ev
_ZNSt12_Vector_baseINSt7__cxx114listINS0_12basic_stringIcSt11char_traitsIcESaIcEEESaIS6_EEESaIS8_EED2Ev:
.LFB3867:
	pushq	%rbp
	.seh_pushreg	%rbp
	movq	%rsp, %rbp
	.seh_setframe	%rbp, 0
	subq	$32, %rsp
	.seh_stackalloc	32
	.seh_endprologue
	movq	%rcx, 16(%rbp)
	movq	16(%rbp), %rax
	movq	16(%rax), %rdx
	movq	16(%rbp), %rax
	movq	(%rax), %rax
	subq	%rax, %rdx
	sarq	$3, %rdx
	movabsq	$-6148914691236517205, %rax
	imulq	%rdx, %rax
	movq	%rax, %rcx
	movq	16(%rbp), %rax
	movq	(%rax), %rdx
	movq	16(%rbp), %rax
	movq	%rcx, %r8
	movq	%rax, %rcx
	call	_ZNSt12_Vector_baseINSt7__cxx114listINS0_12basic_stringIcSt11char_traitsIcESaIcEEESaIS6_EEESaIS8_EE13_M_deallocateEPS8_y
	movq	16(%rbp), %rax
	movq	%rax, %rcx
	call	_ZNSt12_Vector_baseINSt7__cxx114listINS0_12basic_stringIcSt11char_traitsIcESaIcEEESaIS6_EEESaIS8_EE12_Vector_implD1Ev
	nop
	addq	$32, %rsp
	popq	%rbp
	ret
	.seh_handler	__gxx_personality_seh0, @unwind, @except
	.seh_handlerdata
.LLSDA3867:
	.byte	0xff
	.byte	0xff
	.byte	0x1
	.uleb128 .LLSDACSE3867-.LLSDACSB3867
.LLSDACSB3867:
.LLSDACSE3867:
	.section	.text$_ZNSt12_Vector_baseINSt7__cxx114listINS0_12basic_stringIcSt11char_traitsIcESaIcEEESaIS6_EEESaIS8_EED2Ev,"x"
	.linkonce discard
	.seh_endproc
	.section	.text$_ZNSt6vectorINSt7__cxx114listINS0_12basic_stringIcSt11char_traitsIcESaIcEEESaIS6_EEESaIS8_EE6resizeEy,"x"
	.linkonce discard
	.align 2
	.globl	_ZNSt6vectorINSt7__cxx114listINS0_12basic_stringIcSt11char_traitsIcESaIcEEESaIS6_EEESaIS8_EE6resizeEy
	.def	_ZNSt6vectorINSt7__cxx114listINS0_12basic_stringIcSt11char_traitsIcESaIcEEESaIS6_EEESaIS8_EE6resizeEy;	.scl	2;	.type	32;	.endef
	.seh_proc	_ZNSt6vectorINSt7__cxx114listINS0_12basic_stringIcSt11char_traitsIcESaIcEEESaIS6_EEESaIS8_EE6resizeEy
_ZNSt6vectorINSt7__cxx114listINS0_12basic_stringIcSt11char_traitsIcESaIcEEESaIS6_EEESaIS8_EE6resizeEy:
.LFB3869:
	pushq	%rbp
	.seh_pushreg	%rbp
	movq	%rsp, %rbp
	.seh_setframe	%rbp, 0
	subq	$32, %rsp
	.seh_stackalloc	32
	.seh_endprologue
	movq	%rcx, 16(%rbp)
	movq	%rdx, 24(%rbp)
	movq	16(%rbp), %rax
	movq	%rax, %rcx
	call	_ZNKSt6vectorINSt7__cxx114listINS0_12basic_stringIcSt11char_traitsIcESaIcEEESaIS6_EEESaIS8_EE4sizeEv
	cmpq	24(%rbp), %rax
	setb	%al
	testb	%al, %al
	je	.L141
	movq	16(%rbp), %rax
	movq	%rax, %rcx
	call	_ZNKSt6vectorINSt7__cxx114listINS0_12basic_stringIcSt11char_traitsIcESaIcEEESaIS6_EEESaIS8_EE4sizeEv
	movq	24(%rbp), %rdx
	subq	%rax, %rdx
	movq	16(%rbp), %rax
	movq	%rax, %rcx
	call	_ZNSt6vectorINSt7__cxx114listINS0_12basic_stringIcSt11char_traitsIcESaIcEEESaIS6_EEESaIS8_EE17_M_default_appendEy
	jmp	.L143
.L141:
	movq	16(%rbp), %rax
	movq	%rax, %rcx
	call	_ZNKSt6vectorINSt7__cxx114listINS0_12basic_stringIcSt11char_traitsIcESaIcEEESaIS6_EEESaIS8_EE4sizeEv
	cmpq	%rax, 24(%rbp)
	setb	%al
	testb	%al, %al
	je	.L143
	movq	16(%rbp), %rax
	movq	(%rax), %rcx
	movq	24(%rbp), %rdx
	movq	%rdx, %rax
	addq	%rax, %rax
	addq	%rdx, %rax
	salq	$3, %rax
	leaq	(%rcx,%rax), %rdx
	movq	16(%rbp), %rax
	movq	%rax, %rcx
	call	_ZNSt6vectorINSt7__cxx114listINS0_12basic_stringIcSt11char_traitsIcESaIcEEESaIS6_EEESaIS8_EE15_M_erase_at_endEPS8_
.L143:
	nop
	addq	$32, %rsp
	popq	%rbp
	ret
	.seh_endproc
	.section	.text$_ZNSt12_Vector_baseINSt7__cxx114listINS0_12basic_stringIcSt11char_traitsIcESaIcEEESaIS6_EEESaIS8_EE19_M_get_Tp_allocatorEv,"x"
	.linkonce discard
	.align 2
	.globl	_ZNSt12_Vector_baseINSt7__cxx114listINS0_12basic_stringIcSt11char_traitsIcESaIcEEESaIS6_EEESaIS8_EE19_M_get_Tp_allocatorEv
	.def	_ZNSt12_Vector_baseINSt7__cxx114listINS0_12basic_stringIcSt11char_traitsIcESaIcEEESaIS6_EEESaIS8_EE19_M_get_Tp_allocatorEv;	.scl	2;	.type	32;	.endef
	.seh_proc	_ZNSt12_Vector_baseINSt7__cxx114listINS0_12basic_stringIcSt11char_traitsIcESaIcEEESaIS6_EEESaIS8_EE19_M_get_Tp_allocatorEv
_ZNSt12_Vector_baseINSt7__cxx114listINS0_12basic_stringIcSt11char_traitsIcESaIcEEESaIS6_EEESaIS8_EE19_M_get_Tp_allocatorEv:
.LFB3870:
	pushq	%rbp
	.seh_pushreg	%rbp
	movq	%rsp, %rbp
	.seh_setframe	%rbp, 0
	.seh_endprologue
	movq	%rcx, 16(%rbp)
	movq	16(%rbp), %rax
	popq	%rbp
	ret
	.seh_endproc
	.section	.text$_ZNK7HashSetINSt7__cxx1112basic_stringIcSt11char_traitsIcESaIcEEEE14getBucketIndexERKS5_,"x"
	.linkonce discard
	.align 2
	.globl	_ZNK7HashSetINSt7__cxx1112basic_stringIcSt11char_traitsIcESaIcEEEE14getBucketIndexERKS5_
	.def	_ZNK7HashSetINSt7__cxx1112basic_stringIcSt11char_traitsIcESaIcEEEE14getBucketIndexERKS5_;	.scl	2;	.type	32;	.endef
	.seh_proc	_ZNK7HashSetINSt7__cxx1112basic_stringIcSt11char_traitsIcESaIcEEEE14getBucketIndexERKS5_
_ZNK7HashSetINSt7__cxx1112basic_stringIcSt11char_traitsIcESaIcEEEE14getBucketIndexERKS5_:
.LFB3875:
	pushq	%rbp
	.seh_pushreg	%rbp
	movq	%rsp, %rbp
	.seh_setframe	%rbp, 0
	subq	$32, %rsp
	.seh_stackalloc	32
	.seh_endprologue
	movq	%rcx, 16(%rbp)
	movq	%rdx, 24(%rbp)
	movq	16(%rbp), %rax
	leaq	32(%rax), %rcx
	movq	24(%rbp), %rax
	movq	%rax, %rdx
	call	_ZNKSt15__str_hash_baseIcSaIcENSt7__cxx1112basic_stringIcSt11char_traitsIcES0_EEEclERKS5_
	movl	%eax, %edx
	negl	%edx
	cmovns	%edx, %eax
	movq	16(%rbp), %rdx
	movl	24(%rdx), %ecx
	cltd
	idivl	%ecx
	movl	%edx, %ecx
	movl	%ecx, %eax
	addq	$32, %rsp
	popq	%rbp
	ret
	.seh_endproc
	.section	.text$_ZNSt6vectorINSt7__cxx114listINS0_12basic_stringIcSt11char_traitsIcESaIcEEESaIS6_EEESaIS8_EEixEy,"x"
	.linkonce discard
	.align 2
	.globl	_ZNSt6vectorINSt7__cxx114listINS0_12basic_stringIcSt11char_traitsIcESaIcEEESaIS6_EEESaIS8_EEixEy
	.def	_ZNSt6vectorINSt7__cxx114listINS0_12basic_stringIcSt11char_traitsIcESaIcEEESaIS6_EEESaIS8_EEixEy;	.scl	2;	.type	32;	.endef
	.seh_proc	_ZNSt6vectorINSt7__cxx114listINS0_12basic_stringIcSt11char_traitsIcESaIcEEESaIS6_EEESaIS8_EEixEy
_ZNSt6vectorINSt7__cxx114listINS0_12basic_stringIcSt11char_traitsIcESaIcEEESaIS6_EEESaIS8_EEixEy:
.LFB3876:
	pushq	%rbp
	.seh_pushreg	%rbp
	movq	%rsp, %rbp
	.seh_setframe	%rbp, 0
	.seh_endprologue
	movq	%rcx, 16(%rbp)
	movq	%rdx, 24(%rbp)
	movq	16(%rbp), %rax
	movq	(%rax), %rcx
	movq	24(%rbp), %rdx
	movq	%rdx, %rax
	addq	%rax, %rax
	addq	%rdx, %rax
	salq	$3, %rax
	addq	%rcx, %rax
	popq	%rbp
	ret
	.seh_endproc
	.section	.text$_ZNSt7__cxx114listINS_12basic_stringIcSt11char_traitsIcESaIcEEESaIS5_EE5beginEv,"x"
	.linkonce discard
	.align 2
	.globl	_ZNSt7__cxx114listINS_12basic_stringIcSt11char_traitsIcESaIcEEESaIS5_EE5beginEv
	.def	_ZNSt7__cxx114listINS_12basic_stringIcSt11char_traitsIcESaIcEEESaIS5_EE5beginEv;	.scl	2;	.type	32;	.endef
	.seh_proc	_ZNSt7__cxx114listINS_12basic_stringIcSt11char_traitsIcESaIcEEESaIS5_EE5beginEv
_ZNSt7__cxx114listINS_12basic_stringIcSt11char_traitsIcESaIcEEESaIS5_EE5beginEv:
.LFB3877:
	pushq	%rbp
	.seh_pushreg	%rbp
	movq	%rsp, %rbp
	.seh_setframe	%rbp, 0
	subq	$48, %rsp
	.seh_stackalloc	48
	.seh_endprologue
	movq	%rcx, 16(%rbp)
	movq	16(%rbp), %rax
	movq	(%rax), %rdx
	leaq	-8(%rbp), %rax
	movq	%rax, %rcx
	call	_ZNSt14_List_iteratorINSt7__cxx1112basic_stringIcSt11char_traitsIcESaIcEEEEC1EPNSt8__detail15_List_node_baseE
	movq	-8(%rbp), %rax
	addq	$48, %rsp
	popq	%rbp
	ret
	.seh_endproc
	.section	.text$_ZNSt7__cxx114listINS_12basic_stringIcSt11char_traitsIcESaIcEEESaIS5_EE3endEv,"x"
	.linkonce discard
	.align 2
	.globl	_ZNSt7__cxx114listINS_12basic_stringIcSt11char_traitsIcESaIcEEESaIS5_EE3endEv
	.def	_ZNSt7__cxx114listINS_12basic_stringIcSt11char_traitsIcESaIcEEESaIS5_EE3endEv;	.scl	2;	.type	32;	.endef
	.seh_proc	_ZNSt7__cxx114listINS_12basic_stringIcSt11char_traitsIcESaIcEEESaIS5_EE3endEv
_ZNSt7__cxx114listINS_12basic_stringIcSt11char_traitsIcESaIcEEESaIS5_EE3endEv:
.LFB3878:
	pushq	%rbp
	.seh_pushreg	%rbp
	movq	%rsp, %rbp
	.seh_setframe	%rbp, 0
	subq	$48, %rsp
	.seh_stackalloc	48
	.seh_endprologue
	movq	%rcx, 16(%rbp)
	movq	16(%rbp), %rdx
	leaq	-8(%rbp), %rax
	movq	%rax, %rcx
	call	_ZNSt14_List_iteratorINSt7__cxx1112basic_stringIcSt11char_traitsIcESaIcEEEEC1EPNSt8__detail15_List_node_baseE
	movq	-8(%rbp), %rax
	addq	$48, %rsp
	popq	%rbp
	ret
	.seh_endproc
	.section	.text$_ZStneRKSt14_List_iteratorINSt7__cxx1112basic_stringIcSt11char_traitsIcESaIcEEEES8_,"x"
	.linkonce discard
	.globl	_ZStneRKSt14_List_iteratorINSt7__cxx1112basic_stringIcSt11char_traitsIcESaIcEEEES8_
	.def	_ZStneRKSt14_List_iteratorINSt7__cxx1112basic_stringIcSt11char_traitsIcESaIcEEEES8_;	.scl	2;	.type	32;	.endef
	.seh_proc	_ZStneRKSt14_List_iteratorINSt7__cxx1112basic_stringIcSt11char_traitsIcESaIcEEEES8_
_ZStneRKSt14_List_iteratorINSt7__cxx1112basic_stringIcSt11char_traitsIcESaIcEEEES8_:
.LFB3879:
	pushq	%rbp
	.seh_pushreg	%rbp
	movq	%rsp, %rbp
	.seh_setframe	%rbp, 0
	.seh_endprologue
	movq	%rcx, 16(%rbp)
	movq	%rdx, 24(%rbp)
	movq	16(%rbp), %rax
	movq	(%rax), %rdx
	movq	24(%rbp), %rax
	movq	(%rax), %rax
	cmpq	%rax, %rdx
	setne	%al
	popq	%rbp
	ret
	.seh_endproc
	.section	.text$_ZNSt14_List_iteratorINSt7__cxx1112basic_stringIcSt11char_traitsIcESaIcEEEEppEv,"x"
	.linkonce discard
	.align 2
	.globl	_ZNSt14_List_iteratorINSt7__cxx1112basic_stringIcSt11char_traitsIcESaIcEEEEppEv
	.def	_ZNSt14_List_iteratorINSt7__cxx1112basic_stringIcSt11char_traitsIcESaIcEEEEppEv;	.scl	2;	.type	32;	.endef
	.seh_proc	_ZNSt14_List_iteratorINSt7__cxx1112basic_stringIcSt11char_traitsIcESaIcEEEEppEv
_ZNSt14_List_iteratorINSt7__cxx1112basic_stringIcSt11char_traitsIcESaIcEEEEppEv:
.LFB3880:
	pushq	%rbp
	.seh_pushreg	%rbp
	movq	%rsp, %rbp
	.seh_setframe	%rbp, 0
	.seh_endprologue
	movq	%rcx, 16(%rbp)
	movq	16(%rbp), %rax
	movq	(%rax), %rax
	movq	(%rax), %rdx
	movq	16(%rbp), %rax
	movq	%rdx, (%rax)
	movq	16(%rbp), %rax
	popq	%rbp
	ret
	.seh_endproc
	.section	.text$_ZNKSt14_List_iteratorINSt7__cxx1112basic_stringIcSt11char_traitsIcESaIcEEEEdeEv,"x"
	.linkonce discard
	.align 2
	.globl	_ZNKSt14_List_iteratorINSt7__cxx1112basic_stringIcSt11char_traitsIcESaIcEEEEdeEv
	.def	_ZNKSt14_List_iteratorINSt7__cxx1112basic_stringIcSt11char_traitsIcESaIcEEEEdeEv;	.scl	2;	.type	32;	.endef
	.seh_proc	_ZNKSt14_List_iteratorINSt7__cxx1112basic_stringIcSt11char_traitsIcESaIcEEEEdeEv
_ZNKSt14_List_iteratorINSt7__cxx1112basic_stringIcSt11char_traitsIcESaIcEEEEdeEv:
.LFB3881:
	pushq	%rbp
	.seh_pushreg	%rbp
	movq	%rsp, %rbp
	.seh_setframe	%rbp, 0
	subq	$32, %rsp
	.seh_stackalloc	32
	.seh_endprologue
	movq	%rcx, 16(%rbp)
	movq	16(%rbp), %rax
	movq	(%rax), %rax
	movq	%rax, %rcx
	call	_ZNSt10_List_nodeINSt7__cxx1112basic_stringIcSt11char_traitsIcESaIcEEEE9_M_valptrEv
	addq	$32, %rsp
	popq	%rbp
	ret
	.seh_endproc
	.section	.text$_ZSteqIcSt11char_traitsIcESaIcEEbRKNSt7__cxx1112basic_stringIT_T0_T1_EESA_,"x"
	.linkonce discard
	.globl	_ZSteqIcSt11char_traitsIcESaIcEEbRKNSt7__cxx1112basic_stringIT_T0_T1_EESA_
	.def	_ZSteqIcSt11char_traitsIcESaIcEEbRKNSt7__cxx1112basic_stringIT_T0_T1_EESA_;	.scl	2;	.type	32;	.endef
	.seh_proc	_ZSteqIcSt11char_traitsIcESaIcEEbRKNSt7__cxx1112basic_stringIT_T0_T1_EESA_
_ZSteqIcSt11char_traitsIcESaIcEEbRKNSt7__cxx1112basic_stringIT_T0_T1_EESA_:
.LFB3882:
	pushq	%rbp
	.seh_pushreg	%rbp
	pushq	%rsi
	.seh_pushreg	%rsi
	pushq	%rbx
	.seh_pushreg	%rbx
	subq	$32, %rsp
	.seh_stackalloc	32
	leaq	32(%rsp), %rbp
	.seh_setframe	%rbp, 32
	.seh_endprologue
	movq	%rcx, 32(%rbp)
	movq	%rdx, 40(%rbp)
	movq	32(%rbp), %rax
	movq	%rax, %rcx
	call	_ZNKSt7__cxx1112basic_stringIcSt11char_traitsIcESaIcEE4sizeEv
	movq	%rax, %rbx
	movq	40(%rbp), %rax
	movq	%rax, %rcx
	call	_ZNKSt7__cxx1112basic_stringIcSt11char_traitsIcESaIcEE4sizeEv
	cmpq	%rax, %rbx
	jne	.L161
	movq	32(%rbp), %rax
	movq	%rax, %rcx
	call	_ZNKSt7__cxx1112basic_stringIcSt11char_traitsIcESaIcEE4sizeEv
	movq	%rax, %rsi
	movq	40(%rbp), %rax
	movq	%rax, %rcx
	call	_ZNKSt7__cxx1112basic_stringIcSt11char_traitsIcESaIcEE4dataEv
	movq	%rax, %rbx
	movq	32(%rbp), %rax
	movq	%rax, %rcx
	call	_ZNKSt7__cxx1112basic_stringIcSt11char_traitsIcESaIcEE4dataEv
	movq	%rsi, %r8
	movq	%rbx, %rdx
	movq	%rax, %rcx
	call	_ZNSt11char_traitsIcE7compareEPKcS2_y
	testl	%eax, %eax
	jne	.L161
	movl	$1, %eax
	jmp	.L162
.L161:
	movl	$0, %eax
.L162:
	addq	$32, %rsp
	popq	%rbx
	popq	%rsi
	popq	%rbp
	ret
	.seh_endproc
	.section	.text$_ZNSt7__cxx114listINS_12basic_stringIcSt11char_traitsIcESaIcEEESaIS5_EE10push_frontERKS5_,"x"
	.linkonce discard
	.align 2
	.globl	_ZNSt7__cxx114listINS_12basic_stringIcSt11char_traitsIcESaIcEEESaIS5_EE10push_frontERKS5_
	.def	_ZNSt7__cxx114listINS_12basic_stringIcSt11char_traitsIcESaIcEEESaIS5_EE10push_frontERKS5_;	.scl	2;	.type	32;	.endef
	.seh_proc	_ZNSt7__cxx114listINS_12basic_stringIcSt11char_traitsIcESaIcEEESaIS5_EE10push_frontERKS5_
_ZNSt7__cxx114listINS_12basic_stringIcSt11char_traitsIcESaIcEEESaIS5_EE10push_frontERKS5_:
.LFB3883:
	pushq	%rbp
	.seh_pushreg	%rbp
	movq	%rsp, %rbp
	.seh_setframe	%rbp, 0
	subq	$32, %rsp
	.seh_stackalloc	32
	.seh_endprologue
	movq	%rcx, 16(%rbp)
	movq	%rdx, 24(%rbp)
	movq	16(%rbp), %rax
	movq	%rax, %rcx
	call	_ZNSt7__cxx114listINS_12basic_stringIcSt11char_traitsIcESaIcEEESaIS5_EE5beginEv
	movq	%rax, %rdx
	movq	24(%rbp), %rcx
	movq	16(%rbp), %rax
	movq	%rcx, %r8
	movq	%rax, %rcx
	call	_ZNSt7__cxx114listINS_12basic_stringIcSt11char_traitsIcESaIcEEESaIS5_EE9_M_insertIJRKS5_EEEvSt14_List_iteratorIS5_EDpOT_
	nop
	addq	$32, %rsp
	popq	%rbp
	ret
	.seh_endproc
	.section	.text$_ZNKSt6vectorINSt7__cxx114listINS0_12basic_stringIcSt11char_traitsIcESaIcEEESaIS6_EEESaIS8_EEixEy,"x"
	.linkonce discard
	.align 2
	.globl	_ZNKSt6vectorINSt7__cxx114listINS0_12basic_stringIcSt11char_traitsIcESaIcEEESaIS6_EEESaIS8_EEixEy
	.def	_ZNKSt6vectorINSt7__cxx114listINS0_12basic_stringIcSt11char_traitsIcESaIcEEESaIS6_EEESaIS8_EEixEy;	.scl	2;	.type	32;	.endef
	.seh_proc	_ZNKSt6vectorINSt7__cxx114listINS0_12basic_stringIcSt11char_traitsIcESaIcEEESaIS6_EEESaIS8_EEixEy
_ZNKSt6vectorINSt7__cxx114listINS0_12basic_stringIcSt11char_traitsIcESaIcEEESaIS6_EEESaIS8_EEixEy:
.LFB3884:
	pushq	%rbp
	.seh_pushreg	%rbp
	movq	%rsp, %rbp
	.seh_setframe	%rbp, 0
	.seh_endprologue
	movq	%rcx, 16(%rbp)
	movq	%rdx, 24(%rbp)
	movq	16(%rbp), %rax
	movq	(%rax), %rcx
	movq	24(%rbp), %rdx
	movq	%rdx, %rax
	addq	%rax, %rax
	addq	%rdx, %rax
	salq	$3, %rax
	addq	%rcx, %rax
	popq	%rbp
	ret
	.seh_endproc
	.section	.text$_ZNKSt7__cxx114listINS_12basic_stringIcSt11char_traitsIcESaIcEEESaIS5_EE5beginEv,"x"
	.linkonce discard
	.align 2
	.globl	_ZNKSt7__cxx114listINS_12basic_stringIcSt11char_traitsIcESaIcEEESaIS5_EE5beginEv
	.def	_ZNKSt7__cxx114listINS_12basic_stringIcSt11char_traitsIcESaIcEEESaIS5_EE5beginEv;	.scl	2;	.type	32;	.endef
	.seh_proc	_ZNKSt7__cxx114listINS_12basic_stringIcSt11char_traitsIcESaIcEEESaIS5_EE5beginEv
_ZNKSt7__cxx114listINS_12basic_stringIcSt11char_traitsIcESaIcEEESaIS5_EE5beginEv:
.LFB3885:
	pushq	%rbp
	.seh_pushreg	%rbp
	movq	%rsp, %rbp
	.seh_setframe	%rbp, 0
	subq	$48, %rsp
	.seh_stackalloc	48
	.seh_endprologue
	movq	%rcx, 16(%rbp)
	movq	16(%rbp), %rax
	movq	(%rax), %rdx
	leaq	-8(%rbp), %rax
	movq	%rax, %rcx
	call	_ZNSt20_List_const_iteratorINSt7__cxx1112basic_stringIcSt11char_traitsIcESaIcEEEEC1EPKNSt8__detail15_List_node_baseE
	movq	-8(%rbp), %rax
	addq	$48, %rsp
	popq	%rbp
	ret
	.seh_endproc
	.section	.text$_ZNKSt7__cxx114listINS_12basic_stringIcSt11char_traitsIcESaIcEEESaIS5_EE3endEv,"x"
	.linkonce discard
	.align 2
	.globl	_ZNKSt7__cxx114listINS_12basic_stringIcSt11char_traitsIcESaIcEEESaIS5_EE3endEv
	.def	_ZNKSt7__cxx114listINS_12basic_stringIcSt11char_traitsIcESaIcEEESaIS5_EE3endEv;	.scl	2;	.type	32;	.endef
	.seh_proc	_ZNKSt7__cxx114listINS_12basic_stringIcSt11char_traitsIcESaIcEEESaIS5_EE3endEv
_ZNKSt7__cxx114listINS_12basic_stringIcSt11char_traitsIcESaIcEEESaIS5_EE3endEv:
.LFB3886:
	pushq	%rbp
	.seh_pushreg	%rbp
	movq	%rsp, %rbp
	.seh_setframe	%rbp, 0
	subq	$48, %rsp
	.seh_stackalloc	48
	.seh_endprologue
	movq	%rcx, 16(%rbp)
	movq	16(%rbp), %rdx
	leaq	-8(%rbp), %rax
	movq	%rax, %rcx
	call	_ZNSt20_List_const_iteratorINSt7__cxx1112basic_stringIcSt11char_traitsIcESaIcEEEEC1EPKNSt8__detail15_List_node_baseE
	movq	-8(%rbp), %rax
	addq	$48, %rsp
	popq	%rbp
	ret
	.seh_endproc
	.section	.text$_ZStneRKSt20_List_const_iteratorINSt7__cxx1112basic_stringIcSt11char_traitsIcESaIcEEEES8_,"x"
	.linkonce discard
	.globl	_ZStneRKSt20_List_const_iteratorINSt7__cxx1112basic_stringIcSt11char_traitsIcESaIcEEEES8_
	.def	_ZStneRKSt20_List_const_iteratorINSt7__cxx1112basic_stringIcSt11char_traitsIcESaIcEEEES8_;	.scl	2;	.type	32;	.endef
	.seh_proc	_ZStneRKSt20_List_const_iteratorINSt7__cxx1112basic_stringIcSt11char_traitsIcESaIcEEEES8_
_ZStneRKSt20_List_const_iteratorINSt7__cxx1112basic_stringIcSt11char_traitsIcESaIcEEEES8_:
.LFB3887:
	pushq	%rbp
	.seh_pushreg	%rbp
	movq	%rsp, %rbp
	.seh_setframe	%rbp, 0
	.seh_endprologue
	movq	%rcx, 16(%rbp)
	movq	%rdx, 24(%rbp)
	movq	16(%rbp), %rax
	movq	(%rax), %rdx
	movq	24(%rbp), %rax
	movq	(%rax), %rax
	cmpq	%rax, %rdx
	setne	%al
	popq	%rbp
	ret
	.seh_endproc
	.section	.text$_ZNSt20_List_const_iteratorINSt7__cxx1112basic_stringIcSt11char_traitsIcESaIcEEEEppEv,"x"
	.linkonce discard
	.align 2
	.globl	_ZNSt20_List_const_iteratorINSt7__cxx1112basic_stringIcSt11char_traitsIcESaIcEEEEppEv
	.def	_ZNSt20_List_const_iteratorINSt7__cxx1112basic_stringIcSt11char_traitsIcESaIcEEEEppEv;	.scl	2;	.type	32;	.endef
	.seh_proc	_ZNSt20_List_const_iteratorINSt7__cxx1112basic_stringIcSt11char_traitsIcESaIcEEEEppEv
_ZNSt20_List_const_iteratorINSt7__cxx1112basic_stringIcSt11char_traitsIcESaIcEEEEppEv:
.LFB3888:
	pushq	%rbp
	.seh_pushreg	%rbp
	movq	%rsp, %rbp
	.seh_setframe	%rbp, 0
	.seh_endprologue
	movq	%rcx, 16(%rbp)
	movq	16(%rbp), %rax
	movq	(%rax), %rax
	movq	(%rax), %rdx
	movq	16(%rbp), %rax
	movq	%rdx, (%rax)
	movq	16(%rbp), %rax
	popq	%rbp
	ret
	.seh_endproc
	.section	.text$_ZNKSt20_List_const_iteratorINSt7__cxx1112basic_stringIcSt11char_traitsIcESaIcEEEEdeEv,"x"
	.linkonce discard
	.align 2
	.globl	_ZNKSt20_List_const_iteratorINSt7__cxx1112basic_stringIcSt11char_traitsIcESaIcEEEEdeEv
	.def	_ZNKSt20_List_const_iteratorINSt7__cxx1112basic_stringIcSt11char_traitsIcESaIcEEEEdeEv;	.scl	2;	.type	32;	.endef
	.seh_proc	_ZNKSt20_List_const_iteratorINSt7__cxx1112basic_stringIcSt11char_traitsIcESaIcEEEEdeEv
_ZNKSt20_List_const_iteratorINSt7__cxx1112basic_stringIcSt11char_traitsIcESaIcEEEEdeEv:
.LFB3889:
	pushq	%rbp
	.seh_pushreg	%rbp
	movq	%rsp, %rbp
	.seh_setframe	%rbp, 0
	subq	$32, %rsp
	.seh_stackalloc	32
	.seh_endprologue
	movq	%rcx, 16(%rbp)
	movq	16(%rbp), %rax
	movq	(%rax), %rax
	movq	%rax, %rcx
	call	_ZNKSt10_List_nodeINSt7__cxx1112basic_stringIcSt11char_traitsIcESaIcEEEE9_M_valptrEv
	addq	$32, %rsp
	popq	%rbp
	ret
	.seh_endproc
	.section	.text$_ZNKSt7__cxx114listINS_12basic_stringIcSt11char_traitsIcESaIcEEESaIS5_EE4sizeEv,"x"
	.linkonce discard
	.align 2
	.globl	_ZNKSt7__cxx114listINS_12basic_stringIcSt11char_traitsIcESaIcEEESaIS5_EE4sizeEv
	.def	_ZNKSt7__cxx114listINS_12basic_stringIcSt11char_traitsIcESaIcEEESaIS5_EE4sizeEv;	.scl	2;	.type	32;	.endef
	.seh_proc	_ZNKSt7__cxx114listINS_12basic_stringIcSt11char_traitsIcESaIcEEESaIS5_EE4sizeEv
_ZNKSt7__cxx114listINS_12basic_stringIcSt11char_traitsIcESaIcEEESaIS5_EE4sizeEv:
.LFB3891:
	pushq	%rbp
	.seh_pushreg	%rbp
	movq	%rsp, %rbp
	.seh_setframe	%rbp, 0
	subq	$32, %rsp
	.seh_stackalloc	32
	.seh_endprologue
	movq	%rcx, 16(%rbp)
	movq	16(%rbp), %rax
	movq	%rax, %rcx
	call	_ZNKSt7__cxx114listINS_12basic_stringIcSt11char_traitsIcESaIcEEESaIS5_EE13_M_node_countEv
	addq	$32, %rsp
	popq	%rbp
	ret
	.seh_handler	__gxx_personality_seh0, @unwind, @except
	.seh_handlerdata
.LLSDA3891:
	.byte	0xff
	.byte	0xff
	.byte	0x1
	.uleb128 .LLSDACSE3891-.LLSDACSB3891
.LLSDACSB3891:
.LLSDACSE3891:
	.section	.text$_ZNKSt7__cxx114listINS_12basic_stringIcSt11char_traitsIcESaIcEEESaIS5_EE4sizeEv,"x"
	.linkonce discard
	.seh_endproc
	.section	.text$_ZNSt7__cxx114listINS_12basic_stringIcSt11char_traitsIcESaIcEEESaIS5_EED1Ev,"x"
	.linkonce discard
	.align 2
	.globl	_ZNSt7__cxx114listINS_12basic_stringIcSt11char_traitsIcESaIcEEESaIS5_EED1Ev
	.def	_ZNSt7__cxx114listINS_12basic_stringIcSt11char_traitsIcESaIcEEESaIS5_EED1Ev;	.scl	2;	.type	32;	.endef
	.seh_proc	_ZNSt7__cxx114listINS_12basic_stringIcSt11char_traitsIcESaIcEEESaIS5_EED1Ev
_ZNSt7__cxx114listINS_12basic_stringIcSt11char_traitsIcESaIcEEESaIS5_EED1Ev:
.LFB3895:
	pushq	%rbp
	.seh_pushreg	%rbp
	movq	%rsp, %rbp
	.seh_setframe	%rbp, 0
	subq	$32, %rsp
	.seh_stackalloc	32
	.seh_endprologue
	movq	%rcx, 16(%rbp)
	movq	16(%rbp), %rax
	movq	%rax, %rcx
	call	_ZNSt7__cxx1110_List_baseINS_12basic_stringIcSt11char_traitsIcESaIcEEESaIS5_EED2Ev
	nop
	addq	$32, %rsp
	popq	%rbp
	ret
	.seh_endproc
	.section	.text$_ZNSt7__cxx114listINS_12basic_stringIcSt11char_traitsIcESaIcEEESaIS5_EE6removeERKS5_,"x"
	.linkonce discard
	.align 2
	.globl	_ZNSt7__cxx114listINS_12basic_stringIcSt11char_traitsIcESaIcEEESaIS5_EE6removeERKS5_
	.def	_ZNSt7__cxx114listINS_12basic_stringIcSt11char_traitsIcESaIcEEESaIS5_EE6removeERKS5_;	.scl	2;	.type	32;	.endef
	.seh_proc	_ZNSt7__cxx114listINS_12basic_stringIcSt11char_traitsIcESaIcEEESaIS5_EE6removeERKS5_
_ZNSt7__cxx114listINS_12basic_stringIcSt11char_traitsIcESaIcEEESaIS5_EE6removeERKS5_:
.LFB3892:
	pushq	%rbp
	.seh_pushreg	%rbp
	movq	%rsp, %rbp
	.seh_setframe	%rbp, 0
	addq	$-128, %rsp
	.seh_stackalloc	128
	.seh_endprologue
	movq	%rcx, 16(%rbp)
	movq	%rdx, 24(%rbp)
	leaq	-25(%rbp), %rax
	movq	16(%rbp), %rdx
	movq	%rax, %rcx
	call	_ZNKSt7__cxx114listINS_12basic_stringIcSt11char_traitsIcESaIcEEESaIS5_EE13get_allocatorEv
	leaq	-25(%rbp), %rdx
	leaq	-64(%rbp), %rax
	movq	%rax, %rcx
	call	_ZNSt7__cxx114listINS_12basic_stringIcSt11char_traitsIcESaIcEEESaIS5_EEC1ERKS6_
	leaq	-25(%rbp), %rax
	movq	%rax, %rcx
	call	_ZNSt15__new_allocatorINSt7__cxx1112basic_stringIcSt11char_traitsIcESaIcEEEED2Ev
	nop
	movq	16(%rbp), %rax
	movq	%rax, %rcx
	call	_ZNSt7__cxx114listINS_12basic_stringIcSt11char_traitsIcESaIcEEESaIS5_EE5beginEv
	movq	%rax, -72(%rbp)
	movq	16(%rbp), %rax
	movq	%rax, %rcx
	call	_ZNSt7__cxx114listINS_12basic_stringIcSt11char_traitsIcESaIcEEESaIS5_EE3endEv
	movq	%rax, -80(%rbp)
	jmp	.L181
.L183:
	movq	-72(%rbp), %rax
	movq	%rax, -88(%rbp)
	leaq	-88(%rbp), %rax
	movq	%rax, %rcx
	call	_ZNSt14_List_iteratorINSt7__cxx1112basic_stringIcSt11char_traitsIcESaIcEEEEppEv
	leaq	-72(%rbp), %rax
	movq	%rax, %rcx
	call	_ZNKSt14_List_iteratorINSt7__cxx1112basic_stringIcSt11char_traitsIcESaIcEEEEdeEv
	movq	%rax, %rcx
	movq	24(%rbp), %rax
	movq	%rax, %rdx
	call	_ZSteqIcSt11char_traitsIcESaIcEEbRKNSt7__cxx1112basic_stringIT_T0_T1_EESA_
	testb	%al, %al
	je	.L182
	leaq	-72(%rbp), %rdx
	leaq	-24(%rbp), %rax
	movq	%rax, %rcx
	call	_ZNSt20_List_const_iteratorINSt7__cxx1112basic_stringIcSt11char_traitsIcESaIcEEEEC1ERKSt14_List_iteratorIS5_E
	leaq	-64(%rbp), %rax
	movq	%rax, %rcx
	call	_ZNSt7__cxx114listINS_12basic_stringIcSt11char_traitsIcESaIcEEESaIS5_EE5beginEv
	movq	%rax, -8(%rbp)
	leaq	-8(%rbp), %rdx
	leaq	-16(%rbp), %rax
	movq	%rax, %rcx
	call	_ZNSt20_List_const_iteratorINSt7__cxx1112basic_stringIcSt11char_traitsIcESaIcEEEEC1ERKSt14_List_iteratorIS5_E
	movq	-24(%rbp), %r8
	movq	16(%rbp), %rcx
	movq	-16(%rbp), %rdx
	leaq	-64(%rbp), %rax
	movq	%r8, %r9
	movq	%rcx, %r8
	movq	%rax, %rcx
	call	_ZNSt7__cxx114listINS_12basic_stringIcSt11char_traitsIcESaIcEEESaIS5_EE6spliceESt20_List_const_iteratorIS5_ERS7_S9_
.L182:
	movq	-88(%rbp), %rax
	movq	%rax, -72(%rbp)
.L181:
	leaq	-80(%rbp), %rdx
	leaq	-72(%rbp), %rax
	movq	%rax, %rcx
	call	_ZStneRKSt14_List_iteratorINSt7__cxx1112basic_stringIcSt11char_traitsIcESaIcEEEES8_
	testb	%al, %al
	jne	.L183
	nop
	leaq	-64(%rbp), %rax
	movq	%rax, %rcx
	call	_ZNSt7__cxx114listINS_12basic_stringIcSt11char_traitsIcESaIcEEESaIS5_EED1Ev
	nop
	subq	$-128, %rsp
	popq	%rbp
	ret
	.seh_endproc
	.section	.text$_ZNSt12_Vector_baseINSt7__cxx114listINS0_12basic_stringIcSt11char_traitsIcESaIcEEESaIS6_EEESaIS8_EE17_Vector_impl_dataC2Ev,"x"
	.linkonce discard
	.align 2
	.globl	_ZNSt12_Vector_baseINSt7__cxx114listINS0_12basic_stringIcSt11char_traitsIcESaIcEEESaIS6_EEESaIS8_EE17_Vector_impl_dataC2Ev
	.def	_ZNSt12_Vector_baseINSt7__cxx114listINS0_12basic_stringIcSt11char_traitsIcESaIcEEESaIS6_EEESaIS8_EE17_Vector_impl_dataC2Ev;	.scl	2;	.type	32;	.endef
	.seh_proc	_ZNSt12_Vector_baseINSt7__cxx114listINS0_12basic_stringIcSt11char_traitsIcESaIcEEESaIS6_EEESaIS8_EE17_Vector_impl_dataC2Ev
_ZNSt12_Vector_baseINSt7__cxx114listINS0_12basic_stringIcSt11char_traitsIcESaIcEEESaIS6_EEESaIS8_EE17_Vector_impl_dataC2Ev:
.LFB3958:
	pushq	%rbp
	.seh_pushreg	%rbp
	movq	%rsp, %rbp
	.seh_setframe	%rbp, 0
	.seh_endprologue
	movq	%rcx, 16(%rbp)
	movq	16(%rbp), %rax
	movq	$0, (%rax)
	movq	16(%rbp), %rax
	movq	$0, 8(%rax)
	movq	16(%rbp), %rax
	movq	$0, 16(%rax)
	nop
	popq	%rbp
	ret
	.seh_endproc
	.section	.text$_ZNSt15__new_allocatorINSt7__cxx114listINS0_12basic_stringIcSt11char_traitsIcESaIcEEESaIS6_EEEED2Ev,"x"
	.linkonce discard
	.align 2
	.globl	_ZNSt15__new_allocatorINSt7__cxx114listINS0_12basic_stringIcSt11char_traitsIcESaIcEEESaIS6_EEEED2Ev
	.def	_ZNSt15__new_allocatorINSt7__cxx114listINS0_12basic_stringIcSt11char_traitsIcESaIcEEESaIS6_EEEED2Ev;	.scl	2;	.type	32;	.endef
	.seh_proc	_ZNSt15__new_allocatorINSt7__cxx114listINS0_12basic_stringIcSt11char_traitsIcESaIcEEESaIS6_EEEED2Ev
_ZNSt15__new_allocatorINSt7__cxx114listINS0_12basic_stringIcSt11char_traitsIcESaIcEEESaIS6_EEEED2Ev:
.LFB3961:
	pushq	%rbp
	.seh_pushreg	%rbp
	movq	%rsp, %rbp
	.seh_setframe	%rbp, 0
	.seh_endprologue
	movq	%rcx, 16(%rbp)
	nop
	popq	%rbp
	ret
	.seh_endproc
	.section	.text$_ZNSt12_Vector_baseINSt7__cxx114listINS0_12basic_stringIcSt11char_traitsIcESaIcEEESaIS6_EEESaIS8_EE13_M_deallocateEPS8_y,"x"
	.linkonce discard
	.align 2
	.globl	_ZNSt12_Vector_baseINSt7__cxx114listINS0_12basic_stringIcSt11char_traitsIcESaIcEEESaIS6_EEESaIS8_EE13_M_deallocateEPS8_y
	.def	_ZNSt12_Vector_baseINSt7__cxx114listINS0_12basic_stringIcSt11char_traitsIcESaIcEEESaIS6_EEESaIS8_EE13_M_deallocateEPS8_y;	.scl	2;	.type	32;	.endef
	.seh_proc	_ZNSt12_Vector_baseINSt7__cxx114listINS0_12basic_stringIcSt11char_traitsIcESaIcEEESaIS6_EEESaIS8_EE13_M_deallocateEPS8_y
_ZNSt12_Vector_baseINSt7__cxx114listINS0_12basic_stringIcSt11char_traitsIcESaIcEEESaIS6_EEESaIS8_EE13_M_deallocateEPS8_y:
.LFB3963:
	pushq	%rbp
	.seh_pushreg	%rbp
	movq	%rsp, %rbp
	.seh_setframe	%rbp, 0
	subq	$64, %rsp
	.seh_stackalloc	64
	.seh_endprologue
	movq	%rcx, 16(%rbp)
	movq	%rdx, 24(%rbp)
	movq	%r8, 32(%rbp)
	cmpq	$0, 24(%rbp)
	je	.L189
	movq	16(%rbp), %rax
	movq	%rax, -8(%rbp)
	movq	24(%rbp), %rax
	movq	%rax, -16(%rbp)
	movq	32(%rbp), %rax
	movq	%rax, -24(%rbp)
	movq	-24(%rbp), %rcx
	movq	-16(%rbp), %rdx
	movq	-8(%rbp), %rax
	movq	%rcx, %r8
	movq	%rax, %rcx
	call	_ZNSt15__new_allocatorINSt7__cxx114listINS0_12basic_stringIcSt11char_traitsIcESaIcEEESaIS6_EEEE10deallocateEPS8_y
	nop
.L189:
	nop
	addq	$64, %rsp
	popq	%rbp
	ret
	.seh_endproc
	.section	.text$_ZNKSt6vectorINSt7__cxx114listINS0_12basic_stringIcSt11char_traitsIcESaIcEEESaIS6_EEESaIS8_EE4sizeEv,"x"
	.linkonce discard
	.align 2
	.globl	_ZNKSt6vectorINSt7__cxx114listINS0_12basic_stringIcSt11char_traitsIcESaIcEEESaIS6_EEESaIS8_EE4sizeEv
	.def	_ZNKSt6vectorINSt7__cxx114listINS0_12basic_stringIcSt11char_traitsIcESaIcEEESaIS6_EEESaIS8_EE4sizeEv;	.scl	2;	.type	32;	.endef
	.seh_proc	_ZNKSt6vectorINSt7__cxx114listINS0_12basic_stringIcSt11char_traitsIcESaIcEEESaIS6_EEESaIS8_EE4sizeEv
_ZNKSt6vectorINSt7__cxx114listINS0_12basic_stringIcSt11char_traitsIcESaIcEEESaIS6_EEESaIS8_EE4sizeEv:
.LFB3964:
	pushq	%rbp
	.seh_pushreg	%rbp
	movq	%rsp, %rbp
	.seh_setframe	%rbp, 0
	.seh_endprologue
	movq	%rcx, 16(%rbp)
	movq	16(%rbp), %rax
	movq	8(%rax), %rdx
	movq	16(%rbp), %rax
	movq	(%rax), %rax
	subq	%rax, %rdx
	sarq	$3, %rdx
	movabsq	$-6148914691236517205, %rax
	imulq	%rdx, %rax
	popq	%rbp
	ret
	.seh_endproc
	.section	.text$_ZZNSt6vectorINSt7__cxx114listINS0_12basic_stringIcSt11char_traitsIcESaIcEEESaIS6_EEESaIS8_EE17_M_default_appendEyEN6_GuardC1EPS8_yRS9_,"x"
	.linkonce discard
	.align 2
	.globl	_ZZNSt6vectorINSt7__cxx114listINS0_12basic_stringIcSt11char_traitsIcESaIcEEESaIS6_EEESaIS8_EE17_M_default_appendEyEN6_GuardC1EPS8_yRS9_
	.def	_ZZNSt6vectorINSt7__cxx114listINS0_12basic_stringIcSt11char_traitsIcESaIcEEESaIS6_EEESaIS8_EE17_M_default_appendEyEN6_GuardC1EPS8_yRS9_;	.scl	2;	.type	32;	.endef
	.seh_proc	_ZZNSt6vectorINSt7__cxx114listINS0_12basic_stringIcSt11char_traitsIcESaIcEEESaIS6_EEESaIS8_EE17_M_default_appendEyEN6_GuardC1EPS8_yRS9_
_ZZNSt6vectorINSt7__cxx114listINS0_12basic_stringIcSt11char_traitsIcESaIcEEESaIS6_EEESaIS8_EE17_M_default_appendEyEN6_GuardC1EPS8_yRS9_:
.LFB3968:
	pushq	%rbp
	.seh_pushreg	%rbp
	movq	%rsp, %rbp
	.seh_setframe	%rbp, 0
	.seh_endprologue
	movq	%rcx, 16(%rbp)
	movq	%rdx, 24(%rbp)
	movq	%r8, 32(%rbp)
	movq	%r9, 40(%rbp)
	movq	16(%rbp), %rax
	movq	24(%rbp), %rdx
	movq	%rdx, (%rax)
	movq	16(%rbp), %rax
	movq	32(%rbp), %rdx
	movq	%rdx, 8(%rax)
	movq	16(%rbp), %rax
	movq	40(%rbp), %rdx
	movq	%rdx, 16(%rax)
	nop
	popq	%rbp
	ret
	.seh_endproc
	.section	.text$_ZZNSt6vectorINSt7__cxx114listINS0_12basic_stringIcSt11char_traitsIcESaIcEEESaIS6_EEESaIS8_EE17_M_default_appendEyEN6_GuardD1Ev,"x"
	.linkonce discard
	.align 2
	.globl	_ZZNSt6vectorINSt7__cxx114listINS0_12basic_stringIcSt11char_traitsIcESaIcEEESaIS6_EEESaIS8_EE17_M_default_appendEyEN6_GuardD1Ev
	.def	_ZZNSt6vectorINSt7__cxx114listINS0_12basic_stringIcSt11char_traitsIcESaIcEEESaIS6_EEESaIS8_EE17_M_default_appendEyEN6_GuardD1Ev;	.scl	2;	.type	32;	.endef
	.seh_proc	_ZZNSt6vectorINSt7__cxx114listINS0_12basic_stringIcSt11char_traitsIcESaIcEEESaIS6_EEESaIS8_EE17_M_default_appendEyEN6_GuardD1Ev
_ZZNSt6vectorINSt7__cxx114listINS0_12basic_stringIcSt11char_traitsIcESaIcEEESaIS6_EEESaIS8_EE17_M_default_appendEyEN6_GuardD1Ev:
.LFB3971:
	pushq	%rbp
	.seh_pushreg	%rbp
	movq	%rsp, %rbp
	.seh_setframe	%rbp, 0
	subq	$64, %rsp
	.seh_stackalloc	64
	.seh_endprologue
	movq	%rcx, 16(%rbp)
	movq	16(%rbp), %rax
	movq	(%rax), %rax
	testq	%rax, %rax
	je	.L195
	movq	16(%rbp), %rax
	movq	8(%rax), %rax
	movq	16(%rbp), %rdx
	movq	(%rdx), %rdx
	movq	16(%rbp), %rcx
	movq	16(%rcx), %rcx
	movq	%rcx, -8(%rbp)
	movq	%rdx, -16(%rbp)
	movq	%rax, -24(%rbp)
	movq	-24(%rbp), %rcx
	movq	-16(%rbp), %rdx
	movq	-8(%rbp), %rax
	movq	%rcx, %r8
	movq	%rax, %rcx
	call	_ZNSt15__new_allocatorINSt7__cxx114listINS0_12basic_stringIcSt11char_traitsIcESaIcEEESaIS6_EEEE10deallocateEPS8_y
	nop
.L195:
	nop
	addq	$64, %rsp
	popq	%rbp
	ret
	.seh_endproc
	.section .rdata,"dr"
.LC25:
	.ascii "vector::_M_default_append\0"
	.section	.text$_ZNSt6vectorINSt7__cxx114listINS0_12basic_stringIcSt11char_traitsIcESaIcEEESaIS6_EEESaIS8_EE17_M_default_appendEy,"x"
	.linkonce discard
	.align 2
	.globl	_ZNSt6vectorINSt7__cxx114listINS0_12basic_stringIcSt11char_traitsIcESaIcEEESaIS6_EEESaIS8_EE17_M_default_appendEy
	.def	_ZNSt6vectorINSt7__cxx114listINS0_12basic_stringIcSt11char_traitsIcESaIcEEESaIS6_EEESaIS8_EE17_M_default_appendEy;	.scl	2;	.type	32;	.endef
	.seh_proc	_ZNSt6vectorINSt7__cxx114listINS0_12basic_stringIcSt11char_traitsIcESaIcEEESaIS6_EEESaIS8_EE17_M_default_appendEy
_ZNSt6vectorINSt7__cxx114listINS0_12basic_stringIcSt11char_traitsIcESaIcEEESaIS6_EEESaIS8_EE17_M_default_appendEy:
.LFB3965:
	pushq	%rbp
	.seh_pushreg	%rbp
	pushq	%rbx
	.seh_pushreg	%rbx
	subq	$120, %rsp
	.seh_stackalloc	120
	leaq	112(%rsp), %rbp
	.seh_setframe	%rbp, 112
	.seh_endprologue
	movq	%rcx, 32(%rbp)
	movq	%rdx, 40(%rbp)
	cmpq	$0, 40(%rbp)
	je	.L205
	movq	32(%rbp), %rax
	movq	%rax, %rcx
	call	_ZNKSt6vectorINSt7__cxx114listINS0_12basic_stringIcSt11char_traitsIcESaIcEEESaIS6_EEESaIS8_EE4sizeEv
	movq	%rax, -8(%rbp)
	movq	32(%rbp), %rax
	movq	16(%rax), %rdx
	movq	32(%rbp), %rax
	movq	8(%rax), %rax
	subq	%rax, %rdx
	sarq	$3, %rdx
	movabsq	$-6148914691236517205, %rax
	imulq	%rdx, %rax
	movq	%rax, -16(%rbp)
	movq	32(%rbp), %rax
	movq	%rax, %rcx
	call	_ZNKSt6vectorINSt7__cxx114listINS0_12basic_stringIcSt11char_traitsIcESaIcEEESaIS6_EEESaIS8_EE8max_sizeEv
	cmpq	-8(%rbp), %rax
	jb	.L198
	movq	32(%rbp), %rax
	movq	%rax, %rcx
	call	_ZNKSt6vectorINSt7__cxx114listINS0_12basic_stringIcSt11char_traitsIcESaIcEEESaIS6_EEESaIS8_EE8max_sizeEv
	subq	-8(%rbp), %rax
	cmpq	-16(%rbp), %rax
	jnb	.L199
.L198:
	movl	$1, %eax
	jmp	.L200
.L199:
	movl	$0, %eax
.L200:
	testb	%al, %al
	movq	-16(%rbp), %rax
	cmpq	40(%rbp), %rax
	jb	.L202
	movq	32(%rbp), %rax
	movq	%rax, %rcx
	call	_ZNSt12_Vector_baseINSt7__cxx114listINS0_12basic_stringIcSt11char_traitsIcESaIcEEESaIS6_EEESaIS8_EE19_M_get_Tp_allocatorEv
	movq	%rax, %rcx
	movq	32(%rbp), %rax
	movq	8(%rax), %rax
	movq	40(%rbp), %rdx
	movq	%rcx, %r8
	movq	%rax, %rcx
.LEHB34:
	call	_ZSt27__uninitialized_default_n_aIPNSt7__cxx114listINS0_12basic_stringIcSt11char_traitsIcESaIcEEESaIS6_EEEyS8_ET_SA_T0_RSaIT1_E
	movq	32(%rbp), %rdx
	movq	%rax, 8(%rdx)
	jmp	.L205
.L202:
	movq	32(%rbp), %rax
	movq	(%rax), %rax
	movq	%rax, -24(%rbp)
	movq	32(%rbp), %rax
	movq	8(%rax), %rax
	movq	%rax, -32(%rbp)
	movq	40(%rbp), %rdx
	movq	32(%rbp), %rax
	leaq	.LC25(%rip), %r8
	movq	%rax, %rcx
	call	_ZNKSt6vectorINSt7__cxx114listINS0_12basic_stringIcSt11char_traitsIcESaIcEEESaIS6_EEESaIS8_EE12_M_check_lenEyPKc
	movq	%rax, -40(%rbp)
	movq	32(%rbp), %rax
	movq	-40(%rbp), %rdx
	movq	%rax, %rcx
	call	_ZNSt12_Vector_baseINSt7__cxx114listINS0_12basic_stringIcSt11char_traitsIcESaIcEEESaIS6_EEESaIS8_EE11_M_allocateEy
.LEHE34:
	movq	%rax, -48(%rbp)
	movq	32(%rbp), %r8
	movq	-40(%rbp), %rcx
	movq	-48(%rbp), %rdx
	leaq	-80(%rbp), %rax
	movq	%r8, %r9
	movq	%rcx, %r8
	movq	%rax, %rcx
	call	_ZZNSt6vectorINSt7__cxx114listINS0_12basic_stringIcSt11char_traitsIcESaIcEEESaIS6_EEESaIS8_EE17_M_default_appendEyEN6_GuardC1EPS8_yRS9_
	movq	32(%rbp), %rax
	movq	%rax, %rcx
	call	_ZNSt12_Vector_baseINSt7__cxx114listINS0_12basic_stringIcSt11char_traitsIcESaIcEEESaIS6_EEESaIS8_EE19_M_get_Tp_allocatorEv
	movq	%rax, %r8
	movq	-8(%rbp), %rdx
	movq	%rdx, %rax
	addq	%rax, %rax
	addq	%rdx, %rax
	salq	$3, %rax
	movq	%rax, %rdx
	movq	-48(%rbp), %rax
	leaq	(%rdx,%rax), %rcx
	movq	40(%rbp), %rax
	movq	%rax, %rdx
.LEHB35:
	call	_ZSt27__uninitialized_default_n_aIPNSt7__cxx114listINS0_12basic_stringIcSt11char_traitsIcESaIcEEESaIS6_EEEyS8_ET_SA_T0_RSaIT1_E
.LEHE35:
	movq	32(%rbp), %rax
	movq	%rax, %rcx
	call	_ZNSt12_Vector_baseINSt7__cxx114listINS0_12basic_stringIcSt11char_traitsIcESaIcEEESaIS6_EEESaIS8_EE19_M_get_Tp_allocatorEv
	movq	%rax, %rcx
	movq	-48(%rbp), %r8
	movq	-32(%rbp), %rdx
	movq	-24(%rbp), %rax
	movq	%rcx, %r9
	movq	%rax, %rcx
	call	_ZNSt6vectorINSt7__cxx114listINS0_12basic_stringIcSt11char_traitsIcESaIcEEESaIS6_EEESaIS8_EE11_S_relocateEPS8_SB_SB_RS9_
	movq	-24(%rbp), %rax
	movq	%rax, -80(%rbp)
	movq	32(%rbp), %rax
	movq	16(%rax), %rax
	subq	-24(%rbp), %rax
	sarq	$3, %rax
	movq	%rax, %rdx
	movabsq	$-6148914691236517205, %rax
	imulq	%rdx, %rax
	movq	%rax, -72(%rbp)
	leaq	-80(%rbp), %rax
	movq	%rax, %rcx
	call	_ZZNSt6vectorINSt7__cxx114listINS0_12basic_stringIcSt11char_traitsIcESaIcEEESaIS6_EEESaIS8_EE17_M_default_appendEyEN6_GuardD1Ev
	movq	32(%rbp), %rax
	movq	-48(%rbp), %rdx
	movq	%rdx, (%rax)
	movq	-8(%rbp), %rdx
	movq	40(%rbp), %rax
	addq	%rax, %rdx
	movq	%rdx, %rax
	addq	%rax, %rax
	addq	%rdx, %rax
	salq	$3, %rax
	movq	%rax, %rdx
	movq	-48(%rbp), %rax
	addq	%rax, %rdx
	movq	32(%rbp), %rax
	movq	%rdx, 8(%rax)
	movq	-40(%rbp), %rdx
	movq	%rdx, %rax
	addq	%rax, %rax
	addq	%rdx, %rax
	salq	$3, %rax
	movq	%rax, %rdx
	movq	-48(%rbp), %rax
	addq	%rax, %rdx
	movq	32(%rbp), %rax
	movq	%rdx, 16(%rax)
	jmp	.L205
.L204:
	movq	%rax, %rbx
	leaq	-80(%rbp), %rax
	movq	%rax, %rcx
	call	_ZZNSt6vectorINSt7__cxx114listINS0_12basic_stringIcSt11char_traitsIcESaIcEEESaIS6_EEESaIS8_EE17_M_default_appendEyEN6_GuardD1Ev
	movq	%rbx, %rax
	movq	%rax, %rcx
.LEHB36:
	call	_Unwind_Resume
.LEHE36:
.L205:
	nop
	addq	$120, %rsp
	popq	%rbx
	popq	%rbp
	ret
	.seh_handler	__gxx_personality_seh0, @unwind, @except
	.seh_handlerdata
.LLSDA3965:
	.byte	0xff
	.byte	0xff
	.byte	0x1
	.uleb128 .LLSDACSE3965-.LLSDACSB3965
.LLSDACSB3965:
	.uleb128 .LEHB34-.LFB3965
	.uleb128 .LEHE34-.LEHB34
	.uleb128 0
	.uleb128 0
	.uleb128 .LEHB35-.LFB3965
	.uleb128 .LEHE35-.LEHB35
	.uleb128 .L204-.LFB3965
	.uleb128 0
	.uleb128 .LEHB36-.LFB3965
	.uleb128 .LEHE36-.LEHB36
	.uleb128 0
	.uleb128 0
.LLSDACSE3965:
	.section	.text$_ZNSt6vectorINSt7__cxx114listINS0_12basic_stringIcSt11char_traitsIcESaIcEEESaIS6_EEESaIS8_EE17_M_default_appendEy,"x"
	.linkonce discard
	.seh_endproc
	.section	.text$_ZNSt6vectorINSt7__cxx114listINS0_12basic_stringIcSt11char_traitsIcESaIcEEESaIS6_EEESaIS8_EE15_M_erase_at_endEPS8_,"x"
	.linkonce discard
	.align 2
	.globl	_ZNSt6vectorINSt7__cxx114listINS0_12basic_stringIcSt11char_traitsIcESaIcEEESaIS6_EEESaIS8_EE15_M_erase_at_endEPS8_
	.def	_ZNSt6vectorINSt7__cxx114listINS0_12basic_stringIcSt11char_traitsIcESaIcEEESaIS6_EEESaIS8_EE15_M_erase_at_endEPS8_;	.scl	2;	.type	32;	.endef
	.seh_proc	_ZNSt6vectorINSt7__cxx114listINS0_12basic_stringIcSt11char_traitsIcESaIcEEESaIS6_EEESaIS8_EE15_M_erase_at_endEPS8_
_ZNSt6vectorINSt7__cxx114listINS0_12basic_stringIcSt11char_traitsIcESaIcEEESaIS6_EEESaIS8_EE15_M_erase_at_endEPS8_:
.LFB3976:
	pushq	%rbp
	.seh_pushreg	%rbp
	movq	%rsp, %rbp
	.seh_setframe	%rbp, 0
	subq	$64, %rsp
	.seh_stackalloc	64
	.seh_endprologue
	movq	%rcx, 16(%rbp)
	movq	%rdx, 24(%rbp)
	movq	16(%rbp), %rax
	movq	8(%rax), %rax
	subq	24(%rbp), %rax
	sarq	$3, %rax
	movq	%rax, %rdx
	movabsq	$-6148914691236517205, %rax
	imulq	%rdx, %rax
	movq	%rax, -8(%rbp)
	cmpq	$0, -8(%rbp)
	je	.L208
	movq	16(%rbp), %rax
	movq	%rax, %rcx
	call	_ZNSt12_Vector_baseINSt7__cxx114listINS0_12basic_stringIcSt11char_traitsIcESaIcEEESaIS6_EEESaIS8_EE19_M_get_Tp_allocatorEv
	movq	16(%rbp), %rdx
	movq	8(%rdx), %rdx
	movq	24(%rbp), %rcx
	movq	%rcx, -16(%rbp)
	movq	%rdx, -24(%rbp)
	movq	%rax, -32(%rbp)
	movq	-24(%rbp), %rdx
	movq	-16(%rbp), %rax
	movq	%rax, %rcx
	call	_ZSt8_DestroyIPNSt7__cxx114listINS0_12basic_stringIcSt11char_traitsIcESaIcEEESaIS6_EEEEvT_SA_
	nop
	movq	16(%rbp), %rax
	movq	24(%rbp), %rdx
	movq	%rdx, 8(%rax)
.L208:
	nop
	addq	$64, %rsp
	popq	%rbp
	ret
	.seh_handler	__gxx_personality_seh0, @unwind, @except
	.seh_handlerdata
.LLSDA3976:
	.byte	0xff
	.byte	0xff
	.byte	0x1
	.uleb128 .LLSDACSE3976-.LLSDACSB3976
.LLSDACSB3976:
.LLSDACSE3976:
	.section	.text$_ZNSt6vectorINSt7__cxx114listINS0_12basic_stringIcSt11char_traitsIcESaIcEEESaIS6_EEESaIS8_EE15_M_erase_at_endEPS8_,"x"
	.linkonce discard
	.seh_endproc
	.section	.text$_ZSt8_DestroyIPNSt7__cxx114listINS0_12basic_stringIcSt11char_traitsIcESaIcEEESaIS6_EEEEvT_SA_,"x"
	.linkonce discard
	.globl	_ZSt8_DestroyIPNSt7__cxx114listINS0_12basic_stringIcSt11char_traitsIcESaIcEEESaIS6_EEEEvT_SA_
	.def	_ZSt8_DestroyIPNSt7__cxx114listINS0_12basic_stringIcSt11char_traitsIcESaIcEEESaIS6_EEEEvT_SA_;	.scl	2;	.type	32;	.endef
	.seh_proc	_ZSt8_DestroyIPNSt7__cxx114listINS0_12basic_stringIcSt11char_traitsIcESaIcEEESaIS6_EEEEvT_SA_
_ZSt8_DestroyIPNSt7__cxx114listINS0_12basic_stringIcSt11char_traitsIcESaIcEEESaIS6_EEEEvT_SA_:
.LFB3977:
	pushq	%rbp
	.seh_pushreg	%rbp
	movq	%rsp, %rbp
	.seh_setframe	%rbp, 0
	subq	$32, %rsp
	.seh_stackalloc	32
	.seh_endprologue
	movq	%rcx, 16(%rbp)
	movq	%rdx, 24(%rbp)
	movq	24(%rbp), %rdx
	movq	16(%rbp), %rax
	movq	%rax, %rcx
	call	_ZNSt12_Destroy_auxILb0EE9__destroyIPNSt7__cxx114listINS2_12basic_stringIcSt11char_traitsIcESaIcEEESaIS8_EEEEEvT_SC_
	nop
	addq	$32, %rsp
	popq	%rbp
	ret
	.seh_endproc
	.section	.text$_ZNKSt15__str_hash_baseIcSaIcENSt7__cxx1112basic_stringIcSt11char_traitsIcES0_EEEclERKS5_,"x"
	.linkonce discard
	.align 2
	.globl	_ZNKSt15__str_hash_baseIcSaIcENSt7__cxx1112basic_stringIcSt11char_traitsIcES0_EEEclERKS5_
	.def	_ZNKSt15__str_hash_baseIcSaIcENSt7__cxx1112basic_stringIcSt11char_traitsIcES0_EEEclERKS5_;	.scl	2;	.type	32;	.endef
	.seh_proc	_ZNKSt15__str_hash_baseIcSaIcENSt7__cxx1112basic_stringIcSt11char_traitsIcES0_EEEclERKS5_
_ZNKSt15__str_hash_baseIcSaIcENSt7__cxx1112basic_stringIcSt11char_traitsIcES0_EEEclERKS5_:
.LFB3980:
	pushq	%rbp
	.seh_pushreg	%rbp
	pushq	%rbx
	.seh_pushreg	%rbx
	subq	$40, %rsp
	.seh_stackalloc	40
	leaq	32(%rsp), %rbp
	.seh_setframe	%rbp, 32
	.seh_endprologue
	movq	%rcx, 32(%rbp)
	movq	%rdx, 40(%rbp)
	movq	40(%rbp), %rax
	movq	%rax, %rcx
	call	_ZNKSt7__cxx1112basic_stringIcSt11char_traitsIcESaIcEE6lengthEv
	movq	%rax, %rbx
	movq	40(%rbp), %rax
	movq	%rax, %rcx
	call	_ZNKSt7__cxx1112basic_stringIcSt11char_traitsIcESaIcEE4dataEv
	movl	$3339675911, %r8d
	movq	%rbx, %rdx
	movq	%rax, %rcx
	call	_ZNSt10_Hash_impl4hashEPKvyy
	addq	$40, %rsp
	popq	%rbx
	popq	%rbp
	ret
	.seh_handler	__gxx_personality_seh0, @unwind, @except
	.seh_handlerdata
.LLSDA3980:
	.byte	0xff
	.byte	0xff
	.byte	0x1
	.uleb128 .LLSDACSE3980-.LLSDACSB3980
.LLSDACSB3980:
.LLSDACSE3980:
	.section	.text$_ZNKSt15__str_hash_baseIcSaIcENSt7__cxx1112basic_stringIcSt11char_traitsIcES0_EEEclERKS5_,"x"
	.linkonce discard
	.seh_endproc
	.section	.text$_ZNSt14_List_iteratorINSt7__cxx1112basic_stringIcSt11char_traitsIcESaIcEEEEC1EPNSt8__detail15_List_node_baseE,"x"
	.linkonce discard
	.align 2
	.globl	_ZNSt14_List_iteratorINSt7__cxx1112basic_stringIcSt11char_traitsIcESaIcEEEEC1EPNSt8__detail15_List_node_baseE
	.def	_ZNSt14_List_iteratorINSt7__cxx1112basic_stringIcSt11char_traitsIcESaIcEEEEC1EPNSt8__detail15_List_node_baseE;	.scl	2;	.type	32;	.endef
	.seh_proc	_ZNSt14_List_iteratorINSt7__cxx1112basic_stringIcSt11char_traitsIcESaIcEEEEC1EPNSt8__detail15_List_node_baseE
_ZNSt14_List_iteratorINSt7__cxx1112basic_stringIcSt11char_traitsIcESaIcEEEEC1EPNSt8__detail15_List_node_baseE:
.LFB3983:
	pushq	%rbp
	.seh_pushreg	%rbp
	movq	%rsp, %rbp
	.seh_setframe	%rbp, 0
	.seh_endprologue
	movq	%rcx, 16(%rbp)
	movq	%rdx, 24(%rbp)
	movq	16(%rbp), %rax
	movq	24(%rbp), %rdx
	movq	%rdx, (%rax)
	nop
	popq	%rbp
	ret
	.seh_endproc
	.section	.text$_ZNSt10_List_nodeINSt7__cxx1112basic_stringIcSt11char_traitsIcESaIcEEEE9_M_valptrEv,"x"
	.linkonce discard
	.align 2
	.globl	_ZNSt10_List_nodeINSt7__cxx1112basic_stringIcSt11char_traitsIcESaIcEEEE9_M_valptrEv
	.def	_ZNSt10_List_nodeINSt7__cxx1112basic_stringIcSt11char_traitsIcESaIcEEEE9_M_valptrEv;	.scl	2;	.type	32;	.endef
	.seh_proc	_ZNSt10_List_nodeINSt7__cxx1112basic_stringIcSt11char_traitsIcESaIcEEEE9_M_valptrEv
_ZNSt10_List_nodeINSt7__cxx1112basic_stringIcSt11char_traitsIcESaIcEEEE9_M_valptrEv:
.LFB3984:
	pushq	%rbp
	.seh_pushreg	%rbp
	movq	%rsp, %rbp
	.seh_setframe	%rbp, 0
	subq	$32, %rsp
	.seh_stackalloc	32
	.seh_endprologue
	movq	%rcx, 16(%rbp)
	movq	16(%rbp), %rax
	addq	$16, %rax
	movq	%rax, %rcx
	call	_ZN9__gnu_cxx16__aligned_membufINSt7__cxx1112basic_stringIcSt11char_traitsIcESaIcEEEE6_M_ptrEv
	addq	$32, %rsp
	popq	%rbp
	ret
	.seh_endproc
	.section	.text$_ZNSt7__cxx114listINS_12basic_stringIcSt11char_traitsIcESaIcEEESaIS5_EE9_M_insertIJRKS5_EEEvSt14_List_iteratorIS5_EDpOT_,"x"
	.linkonce discard
	.align 2
	.globl	_ZNSt7__cxx114listINS_12basic_stringIcSt11char_traitsIcESaIcEEESaIS5_EE9_M_insertIJRKS5_EEEvSt14_List_iteratorIS5_EDpOT_
	.def	_ZNSt7__cxx114listINS_12basic_stringIcSt11char_traitsIcESaIcEEESaIS5_EE9_M_insertIJRKS5_EEEvSt14_List_iteratorIS5_EDpOT_;	.scl	2;	.type	32;	.endef
	.seh_proc	_ZNSt7__cxx114listINS_12basic_stringIcSt11char_traitsIcESaIcEEESaIS5_EE9_M_insertIJRKS5_EEEvSt14_List_iteratorIS5_EDpOT_
_ZNSt7__cxx114listINS_12basic_stringIcSt11char_traitsIcESaIcEEESaIS5_EE9_M_insertIJRKS5_EEEvSt14_List_iteratorIS5_EDpOT_:
.LFB3985:
	pushq	%rbp
	.seh_pushreg	%rbp
	movq	%rsp, %rbp
	.seh_setframe	%rbp, 0
	subq	$48, %rsp
	.seh_stackalloc	48
	.seh_endprologue
	movq	%rcx, 16(%rbp)
	movq	%rdx, 24(%rbp)
	movq	%r8, 32(%rbp)
	movq	32(%rbp), %rax
	movq	%rax, %rcx
	call	_ZSt7forwardIRKNSt7__cxx1112basic_stringIcSt11char_traitsIcESaIcEEEEOT_RNSt16remove_referenceIS8_E4typeE
	movq	%rax, %rdx
	movq	16(%rbp), %rax
	movq	%rax, %rcx
	call	_ZNSt7__cxx114listINS_12basic_stringIcSt11char_traitsIcESaIcEEESaIS5_EE14_M_create_nodeIJRKS5_EEEPSt10_List_nodeIS5_EDpOT_
	movq	%rax, -8(%rbp)
	movq	-8(%rbp), %rax
	movq	24(%rbp), %rdx
	movq	%rax, %rcx
	call	_ZNSt8__detail15_List_node_base7_M_hookEPS0_
	movq	16(%rbp), %rax
	movl	$1, %edx
	movq	%rax, %rcx
	call	_ZNSt7__cxx1110_List_baseINS_12basic_stringIcSt11char_traitsIcESaIcEEESaIS5_EE11_M_inc_sizeEy
	nop
	addq	$48, %rsp
	popq	%rbp
	ret
	.seh_endproc
	.section	.text$_ZNSt20_List_const_iteratorINSt7__cxx1112basic_stringIcSt11char_traitsIcESaIcEEEEC1EPKNSt8__detail15_List_node_baseE,"x"
	.linkonce discard
	.align 2
	.globl	_ZNSt20_List_const_iteratorINSt7__cxx1112basic_stringIcSt11char_traitsIcESaIcEEEEC1EPKNSt8__detail15_List_node_baseE
	.def	_ZNSt20_List_const_iteratorINSt7__cxx1112basic_stringIcSt11char_traitsIcESaIcEEEEC1EPKNSt8__detail15_List_node_baseE;	.scl	2;	.type	32;	.endef
	.seh_proc	_ZNSt20_List_const_iteratorINSt7__cxx1112basic_stringIcSt11char_traitsIcESaIcEEEEC1EPKNSt8__detail15_List_node_baseE
_ZNSt20_List_const_iteratorINSt7__cxx1112basic_stringIcSt11char_traitsIcESaIcEEEEC1EPKNSt8__detail15_List_node_baseE:
.LFB3988:
	pushq	%rbp
	.seh_pushreg	%rbp
	movq	%rsp, %rbp
	.seh_setframe	%rbp, 0
	.seh_endprologue
	movq	%rcx, 16(%rbp)
	movq	%rdx, 24(%rbp)
	movq	16(%rbp), %rax
	movq	24(%rbp), %rdx
	movq	%rdx, (%rax)
	nop
	popq	%rbp
	ret
	.seh_endproc
	.section	.text$_ZNKSt10_List_nodeINSt7__cxx1112basic_stringIcSt11char_traitsIcESaIcEEEE9_M_valptrEv,"x"
	.linkonce discard
	.align 2
	.globl	_ZNKSt10_List_nodeINSt7__cxx1112basic_stringIcSt11char_traitsIcESaIcEEEE9_M_valptrEv
	.def	_ZNKSt10_List_nodeINSt7__cxx1112basic_stringIcSt11char_traitsIcESaIcEEEE9_M_valptrEv;	.scl	2;	.type	32;	.endef
	.seh_proc	_ZNKSt10_List_nodeINSt7__cxx1112basic_stringIcSt11char_traitsIcESaIcEEEE9_M_valptrEv
_ZNKSt10_List_nodeINSt7__cxx1112basic_stringIcSt11char_traitsIcESaIcEEEE9_M_valptrEv:
.LFB3989:
	pushq	%rbp
	.seh_pushreg	%rbp
	movq	%rsp, %rbp
	.seh_setframe	%rbp, 0
	subq	$32, %rsp
	.seh_stackalloc	32
	.seh_endprologue
	movq	%rcx, 16(%rbp)
	movq	16(%rbp), %rax
	addq	$16, %rax
	movq	%rax, %rcx
	call	_ZNK9__gnu_cxx16__aligned_membufINSt7__cxx1112basic_stringIcSt11char_traitsIcESaIcEEEE6_M_ptrEv
	addq	$32, %rsp
	popq	%rbp
	ret
	.seh_endproc
	.section	.text$_ZNKSt7__cxx114listINS_12basic_stringIcSt11char_traitsIcESaIcEEESaIS5_EE13_M_node_countEv,"x"
	.linkonce discard
	.align 2
	.globl	_ZNKSt7__cxx114listINS_12basic_stringIcSt11char_traitsIcESaIcEEESaIS5_EE13_M_node_countEv
	.def	_ZNKSt7__cxx114listINS_12basic_stringIcSt11char_traitsIcESaIcEEESaIS5_EE13_M_node_countEv;	.scl	2;	.type	32;	.endef
	.seh_proc	_ZNKSt7__cxx114listINS_12basic_stringIcSt11char_traitsIcESaIcEEESaIS5_EE13_M_node_countEv
_ZNKSt7__cxx114listINS_12basic_stringIcSt11char_traitsIcESaIcEEESaIS5_EE13_M_node_countEv:
.LFB3990:
	pushq	%rbp
	.seh_pushreg	%rbp
	movq	%rsp, %rbp
	.seh_setframe	%rbp, 0
	subq	$32, %rsp
	.seh_stackalloc	32
	.seh_endprologue
	movq	%rcx, 16(%rbp)
	movq	16(%rbp), %rax
	movq	%rax, %rcx
	call	_ZNKSt7__cxx1110_List_baseINS_12basic_stringIcSt11char_traitsIcESaIcEEESaIS5_EE11_M_get_sizeEv
	addq	$32, %rsp
	popq	%rbp
	ret
	.seh_endproc
	.section	.text$_ZNKSt7__cxx114listINS_12basic_stringIcSt11char_traitsIcESaIcEEESaIS5_EE13get_allocatorEv,"x"
	.linkonce discard
	.align 2
	.globl	_ZNKSt7__cxx114listINS_12basic_stringIcSt11char_traitsIcESaIcEEESaIS5_EE13get_allocatorEv
	.def	_ZNKSt7__cxx114listINS_12basic_stringIcSt11char_traitsIcESaIcEEESaIS5_EE13get_allocatorEv;	.scl	2;	.type	32;	.endef
	.seh_proc	_ZNKSt7__cxx114listINS_12basic_stringIcSt11char_traitsIcESaIcEEESaIS5_EE13get_allocatorEv
_ZNKSt7__cxx114listINS_12basic_stringIcSt11char_traitsIcESaIcEEESaIS5_EE13get_allocatorEv:
.LFB3991:
	pushq	%rbp
	.seh_pushreg	%rbp
	movq	%rsp, %rbp
	.seh_setframe	%rbp, 0
	subq	$64, %rsp
	.seh_stackalloc	64
	.seh_endprologue
	movq	%rcx, 16(%rbp)
	movq	%rdx, 24(%rbp)
	movq	24(%rbp), %rax
	movq	%rax, %rcx
	call	_ZNKSt7__cxx1110_List_baseINS_12basic_stringIcSt11char_traitsIcESaIcEEESaIS5_EE21_M_get_Node_allocatorEv
	movq	16(%rbp), %rdx
	movq	%rdx, -8(%rbp)
	movq	%rax, -16(%rbp)
	movq	-8(%rbp), %rax
	movq	%rax, -24(%rbp)
	nop
	nop
	nop
	movq	16(%rbp), %rax
	addq	$64, %rsp
	popq	%rbp
	ret
	.seh_endproc
	.section	.text$_ZNSt7__cxx114listINS_12basic_stringIcSt11char_traitsIcESaIcEEESaIS5_EEC1ERKS6_,"x"
	.linkonce discard
	.align 2
	.globl	_ZNSt7__cxx114listINS_12basic_stringIcSt11char_traitsIcESaIcEEESaIS5_EEC1ERKS6_
	.def	_ZNSt7__cxx114listINS_12basic_stringIcSt11char_traitsIcESaIcEEESaIS5_EEC1ERKS6_;	.scl	2;	.type	32;	.endef
	.seh_proc	_ZNSt7__cxx114listINS_12basic_stringIcSt11char_traitsIcESaIcEEESaIS5_EEC1ERKS6_
_ZNSt7__cxx114listINS_12basic_stringIcSt11char_traitsIcESaIcEEESaIS5_EEC1ERKS6_:
.LFB3997:
	pushq	%rbp
	.seh_pushreg	%rbp
	movq	%rsp, %rbp
	.seh_setframe	%rbp, 0
	subq	$64, %rsp
	.seh_stackalloc	64
	.seh_endprologue
	movq	%rcx, 16(%rbp)
	movq	%rdx, 24(%rbp)
	movq	16(%rbp), %rax
	movq	24(%rbp), %rdx
	movq	%rdx, -8(%rbp)
	leaq	-17(%rbp), %rdx
	movq	%rdx, -16(%rbp)
	nop
	nop
	leaq	-17(%rbp), %rdx
	movq	%rax, %rcx
	call	_ZNSt7__cxx1110_List_baseINS_12basic_stringIcSt11char_traitsIcESaIcEEESaIS5_EEC2EOSaISt10_List_nodeIS5_EE
	leaq	-17(%rbp), %rax
	movq	%rax, %rcx
	call	_ZNSt15__new_allocatorISt10_List_nodeINSt7__cxx1112basic_stringIcSt11char_traitsIcESaIcEEEEED2Ev
	nop
	nop
	addq	$64, %rsp
	popq	%rbp
	ret
	.seh_endproc
	.section	.text$_ZNSt7__cxx1110_List_baseINS_12basic_stringIcSt11char_traitsIcESaIcEEESaIS5_EE10_List_implD1Ev,"x"
	.linkonce discard
	.align 2
	.globl	_ZNSt7__cxx1110_List_baseINS_12basic_stringIcSt11char_traitsIcESaIcEEESaIS5_EE10_List_implD1Ev
	.def	_ZNSt7__cxx1110_List_baseINS_12basic_stringIcSt11char_traitsIcESaIcEEESaIS5_EE10_List_implD1Ev;	.scl	2;	.type	32;	.endef
	.seh_proc	_ZNSt7__cxx1110_List_baseINS_12basic_stringIcSt11char_traitsIcESaIcEEESaIS5_EE10_List_implD1Ev
_ZNSt7__cxx1110_List_baseINS_12basic_stringIcSt11char_traitsIcESaIcEEESaIS5_EE10_List_implD1Ev:
.LFB4001:
	pushq	%rbp
	.seh_pushreg	%rbp
	movq	%rsp, %rbp
	.seh_setframe	%rbp, 0
	subq	$48, %rsp
	.seh_stackalloc	48
	.seh_endprologue
	movq	%rcx, 16(%rbp)
	movq	16(%rbp), %rax
	movq	%rax, -8(%rbp)
	movq	-8(%rbp), %rax
	movq	%rax, %rcx
	call	_ZNSt15__new_allocatorISt10_List_nodeINSt7__cxx1112basic_stringIcSt11char_traitsIcESaIcEEEEED2Ev
	nop
	nop
	addq	$48, %rsp
	popq	%rbp
	ret
	.seh_endproc
	.section	.text$_ZNSt7__cxx1110_List_baseINS_12basic_stringIcSt11char_traitsIcESaIcEEESaIS5_EED2Ev,"x"
	.linkonce discard
	.align 2
	.globl	_ZNSt7__cxx1110_List_baseINS_12basic_stringIcSt11char_traitsIcESaIcEEESaIS5_EED2Ev
	.def	_ZNSt7__cxx1110_List_baseINS_12basic_stringIcSt11char_traitsIcESaIcEEESaIS5_EED2Ev;	.scl	2;	.type	32;	.endef
	.seh_proc	_ZNSt7__cxx1110_List_baseINS_12basic_stringIcSt11char_traitsIcESaIcEEESaIS5_EED2Ev
_ZNSt7__cxx1110_List_baseINS_12basic_stringIcSt11char_traitsIcESaIcEEESaIS5_EED2Ev:
.LFB4002:
	pushq	%rbp
	.seh_pushreg	%rbp
	movq	%rsp, %rbp
	.seh_setframe	%rbp, 0
	subq	$32, %rsp
	.seh_stackalloc	32
	.seh_endprologue
	movq	%rcx, 16(%rbp)
	movq	16(%rbp), %rax
	movq	%rax, %rcx
	call	_ZNSt7__cxx1110_List_baseINS_12basic_stringIcSt11char_traitsIcESaIcEEESaIS5_EE8_M_clearEv
	movq	16(%rbp), %rax
	movq	%rax, %rcx
	call	_ZNSt7__cxx1110_List_baseINS_12basic_stringIcSt11char_traitsIcESaIcEEESaIS5_EE10_List_implD1Ev
	nop
	addq	$32, %rsp
	popq	%rbp
	ret
	.seh_endproc
	.section	.text$_ZNSt20_List_const_iteratorINSt7__cxx1112basic_stringIcSt11char_traitsIcESaIcEEEEC1ERKSt14_List_iteratorIS5_E,"x"
	.linkonce discard
	.align 2
	.globl	_ZNSt20_List_const_iteratorINSt7__cxx1112basic_stringIcSt11char_traitsIcESaIcEEEEC1ERKSt14_List_iteratorIS5_E
	.def	_ZNSt20_List_const_iteratorINSt7__cxx1112basic_stringIcSt11char_traitsIcESaIcEEEEC1ERKSt14_List_iteratorIS5_E;	.scl	2;	.type	32;	.endef
	.seh_proc	_ZNSt20_List_const_iteratorINSt7__cxx1112basic_stringIcSt11char_traitsIcESaIcEEEEC1ERKSt14_List_iteratorIS5_E
_ZNSt20_List_const_iteratorINSt7__cxx1112basic_stringIcSt11char_traitsIcESaIcEEEEC1ERKSt14_List_iteratorIS5_E:
.LFB4006:
	pushq	%rbp
	.seh_pushreg	%rbp
	movq	%rsp, %rbp
	.seh_setframe	%rbp, 0
	.seh_endprologue
	movq	%rcx, 16(%rbp)
	movq	%rdx, 24(%rbp)
	movq	24(%rbp), %rax
	movq	(%rax), %rdx
	movq	16(%rbp), %rax
	movq	%rdx, (%rax)
	nop
	popq	%rbp
	ret
	.seh_endproc
	.section	.text$_ZNSt7__cxx114listINS_12basic_stringIcSt11char_traitsIcESaIcEEESaIS5_EE6spliceESt20_List_const_iteratorIS5_ERS7_S9_,"x"
	.linkonce discard
	.align 2
	.globl	_ZNSt7__cxx114listINS_12basic_stringIcSt11char_traitsIcESaIcEEESaIS5_EE6spliceESt20_List_const_iteratorIS5_ERS7_S9_
	.def	_ZNSt7__cxx114listINS_12basic_stringIcSt11char_traitsIcESaIcEEESaIS5_EE6spliceESt20_List_const_iteratorIS5_ERS7_S9_;	.scl	2;	.type	32;	.endef
	.seh_proc	_ZNSt7__cxx114listINS_12basic_stringIcSt11char_traitsIcESaIcEEESaIS5_EE6spliceESt20_List_const_iteratorIS5_ERS7_S9_
_ZNSt7__cxx114listINS_12basic_stringIcSt11char_traitsIcESaIcEEESaIS5_EE6spliceESt20_List_const_iteratorIS5_ERS7_S9_:
.LFB4007:
	pushq	%rbp
	.seh_pushreg	%rbp
	movq	%rsp, %rbp
	.seh_setframe	%rbp, 0
	subq	$32, %rsp
	.seh_stackalloc	32
	.seh_endprologue
	movq	%rcx, 16(%rbp)
	movq	%rdx, 24(%rbp)
	movq	%r8, 32(%rbp)
	movq	%r9, 40(%rbp)
	movq	32(%rbp), %rax
	movq	%rax, %rcx
	call	_ZSt4moveIRNSt7__cxx114listINS0_12basic_stringIcSt11char_traitsIcESaIcEEESaIS6_EEEEONSt16remove_referenceIT_E4typeEOSB_
	movq	%rax, %rcx
	movq	40(%rbp), %r8
	movq	24(%rbp), %rdx
	movq	16(%rbp), %rax
	movq	%r8, %r9
	movq	%rcx, %r8
	movq	%rax, %rcx
	call	_ZNSt7__cxx114listINS_12basic_stringIcSt11char_traitsIcESaIcEEESaIS5_EE6spliceESt20_List_const_iteratorIS5_EOS7_S9_
	nop
	addq	$32, %rsp
	popq	%rbp
	ret
	.seh_endproc
	.section	.text$_ZNKSt6vectorINSt7__cxx114listINS0_12basic_stringIcSt11char_traitsIcESaIcEEESaIS6_EEESaIS8_EE8max_sizeEv,"x"
	.linkonce discard
	.align 2
	.globl	_ZNKSt6vectorINSt7__cxx114listINS0_12basic_stringIcSt11char_traitsIcESaIcEEESaIS6_EEESaIS8_EE8max_sizeEv
	.def	_ZNKSt6vectorINSt7__cxx114listINS0_12basic_stringIcSt11char_traitsIcESaIcEEESaIS6_EEESaIS8_EE8max_sizeEv;	.scl	2;	.type	32;	.endef
	.seh_proc	_ZNKSt6vectorINSt7__cxx114listINS0_12basic_stringIcSt11char_traitsIcESaIcEEESaIS6_EEESaIS8_EE8max_sizeEv
_ZNKSt6vectorINSt7__cxx114listINS0_12basic_stringIcSt11char_traitsIcESaIcEEESaIS6_EEESaIS8_EE8max_sizeEv:
.LFB4061:
	pushq	%rbp
	.seh_pushreg	%rbp
	movq	%rsp, %rbp
	.seh_setframe	%rbp, 0
	subq	$32, %rsp
	.seh_stackalloc	32
	.seh_endprologue
	movq	%rcx, 16(%rbp)
	movq	16(%rbp), %rax
	movq	%rax, %rcx
	call	_ZNKSt12_Vector_baseINSt7__cxx114listINS0_12basic_stringIcSt11char_traitsIcESaIcEEESaIS6_EEESaIS8_EE19_M_get_Tp_allocatorEv
	movq	%rax, %rcx
	call	_ZNSt6vectorINSt7__cxx114listINS0_12basic_stringIcSt11char_traitsIcESaIcEEESaIS6_EEESaIS8_EE11_S_max_sizeERKS9_
	addq	$32, %rsp
	popq	%rbp
	ret
	.seh_endproc
	.section	.text$_ZSt27__uninitialized_default_n_aIPNSt7__cxx114listINS0_12basic_stringIcSt11char_traitsIcESaIcEEESaIS6_EEEyS8_ET_SA_T0_RSaIT1_E,"x"
	.linkonce discard
	.globl	_ZSt27__uninitialized_default_n_aIPNSt7__cxx114listINS0_12basic_stringIcSt11char_traitsIcESaIcEEESaIS6_EEEyS8_ET_SA_T0_RSaIT1_E
	.def	_ZSt27__uninitialized_default_n_aIPNSt7__cxx114listINS0_12basic_stringIcSt11char_traitsIcESaIcEEESaIS6_EEEyS8_ET_SA_T0_RSaIT1_E;	.scl	2;	.type	32;	.endef
	.seh_proc	_ZSt27__uninitialized_default_n_aIPNSt7__cxx114listINS0_12basic_stringIcSt11char_traitsIcESaIcEEESaIS6_EEEyS8_ET_SA_T0_RSaIT1_E
_ZSt27__uninitialized_default_n_aIPNSt7__cxx114listINS0_12basic_stringIcSt11char_traitsIcESaIcEEESaIS6_EEEyS8_ET_SA_T0_RSaIT1_E:
.LFB4062:
	pushq	%rbp
	.seh_pushreg	%rbp
	movq	%rsp, %rbp
	.seh_setframe	%rbp, 0
	subq	$32, %rsp
	.seh_stackalloc	32
	.seh_endprologue
	movq	%rcx, 16(%rbp)
	movq	%rdx, 24(%rbp)
	movq	%r8, 32(%rbp)
	movq	24(%rbp), %rdx
	movq	16(%rbp), %rax
	movq	%rax, %rcx
	call	_ZSt25__uninitialized_default_nIPNSt7__cxx114listINS0_12basic_stringIcSt11char_traitsIcESaIcEEESaIS6_EEEyET_SA_T0_
	addq	$32, %rsp
	popq	%rbp
	ret
	.seh_endproc
	.section	.text$_ZNKSt6vectorINSt7__cxx114listINS0_12basic_stringIcSt11char_traitsIcESaIcEEESaIS6_EEESaIS8_EE12_M_check_lenEyPKc,"x"
	.linkonce discard
	.align 2
	.globl	_ZNKSt6vectorINSt7__cxx114listINS0_12basic_stringIcSt11char_traitsIcESaIcEEESaIS6_EEESaIS8_EE12_M_check_lenEyPKc
	.def	_ZNKSt6vectorINSt7__cxx114listINS0_12basic_stringIcSt11char_traitsIcESaIcEEESaIS6_EEESaIS8_EE12_M_check_lenEyPKc;	.scl	2;	.type	32;	.endef
	.seh_proc	_ZNKSt6vectorINSt7__cxx114listINS0_12basic_stringIcSt11char_traitsIcESaIcEEESaIS6_EEESaIS8_EE12_M_check_lenEyPKc
_ZNKSt6vectorINSt7__cxx114listINS0_12basic_stringIcSt11char_traitsIcESaIcEEESaIS6_EEESaIS8_EE12_M_check_lenEyPKc:
.LFB4063:
	pushq	%rbp
	.seh_pushreg	%rbp
	pushq	%rbx
	.seh_pushreg	%rbx
	subq	$56, %rsp
	.seh_stackalloc	56
	leaq	48(%rsp), %rbp
	.seh_setframe	%rbp, 48
	.seh_endprologue
	movq	%rcx, 32(%rbp)
	movq	%rdx, 40(%rbp)
	movq	%r8, 48(%rbp)
	movq	32(%rbp), %rax
	movq	%rax, %rcx
	call	_ZNKSt6vectorINSt7__cxx114listINS0_12basic_stringIcSt11char_traitsIcESaIcEEESaIS6_EEESaIS8_EE8max_sizeEv
	movq	%rax, %rbx
	movq	32(%rbp), %rax
	movq	%rax, %rcx
	call	_ZNKSt6vectorINSt7__cxx114listINS0_12basic_stringIcSt11char_traitsIcESaIcEEESaIS6_EEESaIS8_EE4sizeEv
	subq	%rax, %rbx
	movq	%rbx, %rdx
	movq	40(%rbp), %rax
	cmpq	%rax, %rdx
	setb	%al
	testb	%al, %al
	je	.L233
	movq	48(%rbp), %rax
	movq	%rax, %rcx
	call	_ZSt20__throw_length_errorPKc
.L233:
	movq	32(%rbp), %rax
	movq	%rax, %rcx
	call	_ZNKSt6vectorINSt7__cxx114listINS0_12basic_stringIcSt11char_traitsIcESaIcEEESaIS6_EEESaIS8_EE4sizeEv
	movq	%rax, %rbx
	movq	32(%rbp), %rax
	movq	%rax, %rcx
	call	_ZNKSt6vectorINSt7__cxx114listINS0_12basic_stringIcSt11char_traitsIcESaIcEEESaIS6_EEESaIS8_EE4sizeEv
	movq	%rax, -16(%rbp)
	leaq	40(%rbp), %rdx
	leaq	-16(%rbp), %rax
	movq	%rax, %rcx
	call	_ZSt3maxIyERKT_S2_S2_
	movq	(%rax), %rax
	addq	%rbx, %rax
	movq	%rax, -8(%rbp)
	movq	32(%rbp), %rax
	movq	%rax, %rcx
	call	_ZNKSt6vectorINSt7__cxx114listINS0_12basic_stringIcSt11char_traitsIcESaIcEEESaIS6_EEESaIS8_EE4sizeEv
	cmpq	%rax, -8(%rbp)
	jb	.L234
	movq	32(%rbp), %rax
	movq	%rax, %rcx
	call	_ZNKSt6vectorINSt7__cxx114listINS0_12basic_stringIcSt11char_traitsIcESaIcEEESaIS6_EEESaIS8_EE8max_sizeEv
	cmpq	-8(%rbp), %rax
	jnb	.L235
.L234:
	movq	32(%rbp), %rax
	movq	%rax, %rcx
	call	_ZNKSt6vectorINSt7__cxx114listINS0_12basic_stringIcSt11char_traitsIcESaIcEEESaIS6_EEESaIS8_EE8max_sizeEv
	jmp	.L236
.L235:
	movq	-8(%rbp), %rax
.L236:
	addq	$56, %rsp
	popq	%rbx
	popq	%rbp
	ret
	.seh_endproc
	.section	.text$_ZNSt12_Vector_baseINSt7__cxx114listINS0_12basic_stringIcSt11char_traitsIcESaIcEEESaIS6_EEESaIS8_EE11_M_allocateEy,"x"
	.linkonce discard
	.align 2
	.globl	_ZNSt12_Vector_baseINSt7__cxx114listINS0_12basic_stringIcSt11char_traitsIcESaIcEEESaIS6_EEESaIS8_EE11_M_allocateEy
	.def	_ZNSt12_Vector_baseINSt7__cxx114listINS0_12basic_stringIcSt11char_traitsIcESaIcEEESaIS6_EEESaIS8_EE11_M_allocateEy;	.scl	2;	.type	32;	.endef
	.seh_proc	_ZNSt12_Vector_baseINSt7__cxx114listINS0_12basic_stringIcSt11char_traitsIcESaIcEEESaIS6_EEESaIS8_EE11_M_allocateEy
_ZNSt12_Vector_baseINSt7__cxx114listINS0_12basic_stringIcSt11char_traitsIcESaIcEEESaIS6_EEESaIS8_EE11_M_allocateEy:
.LFB4064:
	pushq	%rbp
	.seh_pushreg	%rbp
	movq	%rsp, %rbp
	.seh_setframe	%rbp, 0
	subq	$48, %rsp
	.seh_stackalloc	48
	.seh_endprologue
	movq	%rcx, 16(%rbp)
	movq	%rdx, 24(%rbp)
	cmpq	$0, 24(%rbp)
	je	.L239
	movq	16(%rbp), %rax
	movq	%rax, -8(%rbp)
	movq	24(%rbp), %rax
	movq	%rax, -16(%rbp)
	movq	-16(%rbp), %rdx
	movq	-8(%rbp), %rax
	movl	$0, %r8d
	movq	%rax, %rcx
	call	_ZNSt15__new_allocatorINSt7__cxx114listINS0_12basic_stringIcSt11char_traitsIcESaIcEEESaIS6_EEEE8allocateEyPKv
	nop
	jmp	.L241
.L239:
	movl	$0, %eax
.L241:
	addq	$48, %rsp
	popq	%rbp
	ret
	.seh_endproc
	.section	.text$_ZNSt6vectorINSt7__cxx114listINS0_12basic_stringIcSt11char_traitsIcESaIcEEESaIS6_EEESaIS8_EE11_S_relocateEPS8_SB_SB_RS9_,"x"
	.linkonce discard
	.globl	_ZNSt6vectorINSt7__cxx114listINS0_12basic_stringIcSt11char_traitsIcESaIcEEESaIS6_EEESaIS8_EE11_S_relocateEPS8_SB_SB_RS9_
	.def	_ZNSt6vectorINSt7__cxx114listINS0_12basic_stringIcSt11char_traitsIcESaIcEEESaIS6_EEESaIS8_EE11_S_relocateEPS8_SB_SB_RS9_;	.scl	2;	.type	32;	.endef
	.seh_proc	_ZNSt6vectorINSt7__cxx114listINS0_12basic_stringIcSt11char_traitsIcESaIcEEESaIS6_EEESaIS8_EE11_S_relocateEPS8_SB_SB_RS9_
_ZNSt6vectorINSt7__cxx114listINS0_12basic_stringIcSt11char_traitsIcESaIcEEESaIS6_EEESaIS8_EE11_S_relocateEPS8_SB_SB_RS9_:
.LFB4065:
	pushq	%rbp
	.seh_pushreg	%rbp
	movq	%rsp, %rbp
	.seh_setframe	%rbp, 0
	subq	$32, %rsp
	.seh_stackalloc	32
	.seh_endprologue
	movq	%rcx, 16(%rbp)
	movq	%rdx, 24(%rbp)
	movq	%r8, 32(%rbp)
	movq	%r9, 40(%rbp)
	movq	40(%rbp), %r8
	movq	32(%rbp), %rcx
	movq	24(%rbp), %rdx
	movq	16(%rbp), %rax
	movq	%r8, %r9
	movq	%rcx, %r8
	movq	%rax, %rcx
	call	_ZSt12__relocate_aIPNSt7__cxx114listINS0_12basic_stringIcSt11char_traitsIcESaIcEEESaIS6_EEES9_SaIS8_EET0_T_SC_SB_RT1_
	addq	$32, %rsp
	popq	%rbp
	ret
	.seh_endproc
	.section	.text$_ZNSt12_Destroy_auxILb0EE9__destroyIPNSt7__cxx114listINS2_12basic_stringIcSt11char_traitsIcESaIcEEESaIS8_EEEEEvT_SC_,"x"
	.linkonce discard
	.globl	_ZNSt12_Destroy_auxILb0EE9__destroyIPNSt7__cxx114listINS2_12basic_stringIcSt11char_traitsIcESaIcEEESaIS8_EEEEEvT_SC_
	.def	_ZNSt12_Destroy_auxILb0EE9__destroyIPNSt7__cxx114listINS2_12basic_stringIcSt11char_traitsIcESaIcEEESaIS8_EEEEEvT_SC_;	.scl	2;	.type	32;	.endef
	.seh_proc	_ZNSt12_Destroy_auxILb0EE9__destroyIPNSt7__cxx114listINS2_12basic_stringIcSt11char_traitsIcESaIcEEESaIS8_EEEEEvT_SC_
_ZNSt12_Destroy_auxILb0EE9__destroyIPNSt7__cxx114listINS2_12basic_stringIcSt11char_traitsIcESaIcEEESaIS8_EEEEEvT_SC_:
.LFB4066:
	pushq	%rbp
	.seh_pushreg	%rbp
	movq	%rsp, %rbp
	.seh_setframe	%rbp, 0
	subq	$32, %rsp
	.seh_stackalloc	32
	.seh_endprologue
	movq	%rcx, 16(%rbp)
	movq	%rdx, 24(%rbp)
	jmp	.L246
.L247:
	movq	16(%rbp), %rax
	movq	%rax, %rcx
	call	_ZSt11__addressofINSt7__cxx114listINS0_12basic_stringIcSt11char_traitsIcESaIcEEESaIS6_EEEEPT_RS9_
	movq	%rax, %rcx
	call	_ZSt8_DestroyINSt7__cxx114listINS0_12basic_stringIcSt11char_traitsIcESaIcEEESaIS6_EEEEvPT_
	addq	$24, 16(%rbp)
.L246:
	movq	16(%rbp), %rax
	cmpq	24(%rbp), %rax
	jne	.L247
	nop
	nop
	addq	$32, %rsp
	popq	%rbp
	ret
	.seh_endproc
	.section	.text$_ZN9__gnu_cxx16__aligned_membufINSt7__cxx1112basic_stringIcSt11char_traitsIcESaIcEEEE6_M_ptrEv,"x"
	.linkonce discard
	.align 2
	.globl	_ZN9__gnu_cxx16__aligned_membufINSt7__cxx1112basic_stringIcSt11char_traitsIcESaIcEEEE6_M_ptrEv
	.def	_ZN9__gnu_cxx16__aligned_membufINSt7__cxx1112basic_stringIcSt11char_traitsIcESaIcEEEE6_M_ptrEv;	.scl	2;	.type	32;	.endef
	.seh_proc	_ZN9__gnu_cxx16__aligned_membufINSt7__cxx1112basic_stringIcSt11char_traitsIcESaIcEEEE6_M_ptrEv
_ZN9__gnu_cxx16__aligned_membufINSt7__cxx1112basic_stringIcSt11char_traitsIcESaIcEEEE6_M_ptrEv:
.LFB4067:
	pushq	%rbp
	.seh_pushreg	%rbp
	movq	%rsp, %rbp
	.seh_setframe	%rbp, 0
	subq	$32, %rsp
	.seh_stackalloc	32
	.seh_endprologue
	movq	%rcx, 16(%rbp)
	movq	16(%rbp), %rax
	movq	%rax, %rcx
	call	_ZN9__gnu_cxx16__aligned_membufINSt7__cxx1112basic_stringIcSt11char_traitsIcESaIcEEEE7_M_addrEv
	addq	$32, %rsp
	popq	%rbp
	ret
	.seh_endproc
	.section	.text$_ZSt7forwardIRKNSt7__cxx1112basic_stringIcSt11char_traitsIcESaIcEEEEOT_RNSt16remove_referenceIS8_E4typeE,"x"
	.linkonce discard
	.globl	_ZSt7forwardIRKNSt7__cxx1112basic_stringIcSt11char_traitsIcESaIcEEEEOT_RNSt16remove_referenceIS8_E4typeE
	.def	_ZSt7forwardIRKNSt7__cxx1112basic_stringIcSt11char_traitsIcESaIcEEEEOT_RNSt16remove_referenceIS8_E4typeE;	.scl	2;	.type	32;	.endef
	.seh_proc	_ZSt7forwardIRKNSt7__cxx1112basic_stringIcSt11char_traitsIcESaIcEEEEOT_RNSt16remove_referenceIS8_E4typeE
_ZSt7forwardIRKNSt7__cxx1112basic_stringIcSt11char_traitsIcESaIcEEEEOT_RNSt16remove_referenceIS8_E4typeE:
.LFB4068:
	pushq	%rbp
	.seh_pushreg	%rbp
	movq	%rsp, %rbp
	.seh_setframe	%rbp, 0
	.seh_endprologue
	movq	%rcx, 16(%rbp)
	movq	16(%rbp), %rax
	popq	%rbp
	ret
	.seh_endproc
	.section	.text$_ZNSt7__cxx114listINS_12basic_stringIcSt11char_traitsIcESaIcEEESaIS5_EE14_M_create_nodeIJRKS5_EEEPSt10_List_nodeIS5_EDpOT_,"x"
	.linkonce discard
	.align 2
	.globl	_ZNSt7__cxx114listINS_12basic_stringIcSt11char_traitsIcESaIcEEESaIS5_EE14_M_create_nodeIJRKS5_EEEPSt10_List_nodeIS5_EDpOT_
	.def	_ZNSt7__cxx114listINS_12basic_stringIcSt11char_traitsIcESaIcEEESaIS5_EE14_M_create_nodeIJRKS5_EEEPSt10_List_nodeIS5_EDpOT_;	.scl	2;	.type	32;	.endef
	.seh_proc	_ZNSt7__cxx114listINS_12basic_stringIcSt11char_traitsIcESaIcEEESaIS5_EE14_M_create_nodeIJRKS5_EEEPSt10_List_nodeIS5_EDpOT_
_ZNSt7__cxx114listINS_12basic_stringIcSt11char_traitsIcESaIcEEESaIS5_EE14_M_create_nodeIJRKS5_EEEPSt10_List_nodeIS5_EDpOT_:
.LFB4069:
	pushq	%rbp
	.seh_pushreg	%rbp
	pushq	%r12
	.seh_pushreg	%r12
	pushq	%rdi
	.seh_pushreg	%rdi
	pushq	%rsi
	.seh_pushreg	%rsi
	pushq	%rbx
	.seh_pushreg	%rbx
	subq	$112, %rsp
	.seh_stackalloc	112
	leaq	112(%rsp), %rbp
	.seh_setframe	%rbp, 112
	.seh_endprologue
	movq	%rcx, 48(%rbp)
	movq	%rdx, 56(%rbp)
	movq	48(%rbp), %rax
	movq	%rax, %rcx
.LEHB37:
	call	_ZNSt7__cxx1110_List_baseINS_12basic_stringIcSt11char_traitsIcESaIcEEESaIS5_EE11_M_get_nodeEv
.LEHE37:
	movq	%rax, -8(%rbp)
	movq	48(%rbp), %rax
	movq	%rax, %rcx
	call	_ZNSt7__cxx1110_List_baseINS_12basic_stringIcSt11char_traitsIcESaIcEEESaIS5_EE21_M_get_Node_allocatorEv
	movq	%rax, -16(%rbp)
	movq	-8(%rbp), %rcx
	movq	-16(%rbp), %rdx
	leaq	-80(%rbp), %rax
	movq	%rcx, %r8
	movq	%rax, %rcx
	call	_ZNSt15__allocated_ptrISaISt10_List_nodeINSt7__cxx1112basic_stringIcSt11char_traitsIcESaIcEEEEEEC1ERS8_PS7_
	movq	56(%rbp), %rax
	movq	%rax, %rcx
	call	_ZSt7forwardIRKNSt7__cxx1112basic_stringIcSt11char_traitsIcESaIcEEEEOT_RNSt16remove_referenceIS8_E4typeE
	movq	%rax, %rbx
	movq	-8(%rbp), %rax
	movq	%rax, %rcx
	call	_ZNSt10_List_nodeINSt7__cxx1112basic_stringIcSt11char_traitsIcESaIcEEEE9_M_valptrEv
	movq	-16(%rbp), %rdx
	movq	%rdx, -24(%rbp)
	movq	%rax, -32(%rbp)
	movq	%rbx, -40(%rbp)
	movq	-40(%rbp), %rax
	movq	%rax, %rcx
	call	_ZSt7forwardIRKNSt7__cxx1112basic_stringIcSt11char_traitsIcESaIcEEEEOT_RNSt16remove_referenceIS8_E4typeE
	movq	-32(%rbp), %rdx
	movq	%rdx, -48(%rbp)
	movq	%rax, -56(%rbp)
	movq	-24(%rbp), %rax
	movq	%rax, -64(%rbp)
	movq	-48(%rbp), %rbx
	movq	%rbx, %rdx
	movl	$32, %ecx
	call	_ZnwyPv
	movq	%rax, %rsi
	movl	$1, %r12d
	movq	-56(%rbp), %rax
	movq	%rax, %rcx
	call	_ZSt7forwardIRKNSt7__cxx1112basic_stringIcSt11char_traitsIcESaIcEEEEOT_RNSt16remove_referenceIS8_E4typeE
	movq	%rax, %rdx
	movq	%rsi, %rcx
.LEHB38:
	call	_ZNSt7__cxx1112basic_stringIcSt11char_traitsIcESaIcEEC1ERKS4_
.LEHE38:
	jmp	.L258
.L257:
	movq	%rax, %rdi
	testb	%r12b, %r12b
	je	.L255
	movq	%rbx, %rdx
	movq	%rsi, %rcx
	call	_ZdlPvS_
.L255:
	movq	%rdi, %rbx
	leaq	-80(%rbp), %rax
	movq	%rax, %rcx
	call	_ZNSt15__allocated_ptrISaISt10_List_nodeINSt7__cxx1112basic_stringIcSt11char_traitsIcESaIcEEEEEED1Ev
	movq	%rbx, %rax
	movq	%rax, %rcx
.LEHB39:
	call	_Unwind_Resume
.LEHE39:
.L258:
	nop
	leaq	-80(%rbp), %rax
	movl	$0, %edx
	movq	%rax, %rcx
	call	_ZNSt15__allocated_ptrISaISt10_List_nodeINSt7__cxx1112basic_stringIcSt11char_traitsIcESaIcEEEEEEaSEDn
	movq	-8(%rbp), %rbx
	leaq	-80(%rbp), %rax
	movq	%rax, %rcx
	call	_ZNSt15__allocated_ptrISaISt10_List_nodeINSt7__cxx1112basic_stringIcSt11char_traitsIcESaIcEEEEEED1Ev
	movq	%rbx, %rax
	addq	$112, %rsp
	popq	%rbx
	popq	%rsi
	popq	%rdi
	popq	%r12
	popq	%rbp
	ret
	.seh_handler	__gxx_personality_seh0, @unwind, @except
	.seh_handlerdata
.LLSDA4069:
	.byte	0xff
	.byte	0xff
	.byte	0x1
	.uleb128 .LLSDACSE4069-.LLSDACSB4069
.LLSDACSB4069:
	.uleb128 .LEHB37-.LFB4069
	.uleb128 .LEHE37-.LEHB37
	.uleb128 0
	.uleb128 0
	.uleb128 .LEHB38-.LFB4069
	.uleb128 .LEHE38-.LEHB38
	.uleb128 .L257-.LFB4069
	.uleb128 0
	.uleb128 .LEHB39-.LFB4069
	.uleb128 .LEHE39-.LEHB39
	.uleb128 0
	.uleb128 0
.LLSDACSE4069:
	.section	.text$_ZNSt7__cxx114listINS_12basic_stringIcSt11char_traitsIcESaIcEEESaIS5_EE14_M_create_nodeIJRKS5_EEEPSt10_List_nodeIS5_EDpOT_,"x"
	.linkonce discard
	.seh_endproc
	.section	.text$_ZNSt7__cxx1110_List_baseINS_12basic_stringIcSt11char_traitsIcESaIcEEESaIS5_EE11_M_inc_sizeEy,"x"
	.linkonce discard
	.align 2
	.globl	_ZNSt7__cxx1110_List_baseINS_12basic_stringIcSt11char_traitsIcESaIcEEESaIS5_EE11_M_inc_sizeEy
	.def	_ZNSt7__cxx1110_List_baseINS_12basic_stringIcSt11char_traitsIcESaIcEEESaIS5_EE11_M_inc_sizeEy;	.scl	2;	.type	32;	.endef
	.seh_proc	_ZNSt7__cxx1110_List_baseINS_12basic_stringIcSt11char_traitsIcESaIcEEESaIS5_EE11_M_inc_sizeEy
_ZNSt7__cxx1110_List_baseINS_12basic_stringIcSt11char_traitsIcESaIcEEESaIS5_EE11_M_inc_sizeEy:
.LFB4071:
	pushq	%rbp
	.seh_pushreg	%rbp
	movq	%rsp, %rbp
	.seh_setframe	%rbp, 0
	.seh_endprologue
	movq	%rcx, 16(%rbp)
	movq	%rdx, 24(%rbp)
	movq	16(%rbp), %rax
	movq	16(%rax), %rdx
	movq	24(%rbp), %rax
	addq	%rax, %rdx
	movq	16(%rbp), %rax
	movq	%rdx, 16(%rax)
	nop
	popq	%rbp
	ret
	.seh_endproc
	.section	.text$_ZNK9__gnu_cxx16__aligned_membufINSt7__cxx1112basic_stringIcSt11char_traitsIcESaIcEEEE6_M_ptrEv,"x"
	.linkonce discard
	.align 2
	.globl	_ZNK9__gnu_cxx16__aligned_membufINSt7__cxx1112basic_stringIcSt11char_traitsIcESaIcEEEE6_M_ptrEv
	.def	_ZNK9__gnu_cxx16__aligned_membufINSt7__cxx1112basic_stringIcSt11char_traitsIcESaIcEEEE6_M_ptrEv;	.scl	2;	.type	32;	.endef
	.seh_proc	_ZNK9__gnu_cxx16__aligned_membufINSt7__cxx1112basic_stringIcSt11char_traitsIcESaIcEEEE6_M_ptrEv
_ZNK9__gnu_cxx16__aligned_membufINSt7__cxx1112basic_stringIcSt11char_traitsIcESaIcEEEE6_M_ptrEv:
.LFB4072:
	pushq	%rbp
	.seh_pushreg	%rbp
	movq	%rsp, %rbp
	.seh_setframe	%rbp, 0
	subq	$32, %rsp
	.seh_stackalloc	32
	.seh_endprologue
	movq	%rcx, 16(%rbp)
	movq	16(%rbp), %rax
	movq	%rax, %rcx
	call	_ZNK9__gnu_cxx16__aligned_membufINSt7__cxx1112basic_stringIcSt11char_traitsIcESaIcEEEE7_M_addrEv
	addq	$32, %rsp
	popq	%rbp
	ret
	.seh_endproc
	.section	.text$_ZNKSt7__cxx1110_List_baseINS_12basic_stringIcSt11char_traitsIcESaIcEEESaIS5_EE11_M_get_sizeEv,"x"
	.linkonce discard
	.align 2
	.globl	_ZNKSt7__cxx1110_List_baseINS_12basic_stringIcSt11char_traitsIcESaIcEEESaIS5_EE11_M_get_sizeEv
	.def	_ZNKSt7__cxx1110_List_baseINS_12basic_stringIcSt11char_traitsIcESaIcEEESaIS5_EE11_M_get_sizeEv;	.scl	2;	.type	32;	.endef
	.seh_proc	_ZNKSt7__cxx1110_List_baseINS_12basic_stringIcSt11char_traitsIcESaIcEEESaIS5_EE11_M_get_sizeEv
_ZNKSt7__cxx1110_List_baseINS_12basic_stringIcSt11char_traitsIcESaIcEEESaIS5_EE11_M_get_sizeEv:
.LFB4073:
	pushq	%rbp
	.seh_pushreg	%rbp
	movq	%rsp, %rbp
	.seh_setframe	%rbp, 0
	.seh_endprologue
	movq	%rcx, 16(%rbp)
	movq	16(%rbp), %rax
	movq	16(%rax), %rax
	popq	%rbp
	ret
	.seh_endproc
	.section	.text$_ZNKSt7__cxx1110_List_baseINS_12basic_stringIcSt11char_traitsIcESaIcEEESaIS5_EE21_M_get_Node_allocatorEv,"x"
	.linkonce discard
	.align 2
	.globl	_ZNKSt7__cxx1110_List_baseINS_12basic_stringIcSt11char_traitsIcESaIcEEESaIS5_EE21_M_get_Node_allocatorEv
	.def	_ZNKSt7__cxx1110_List_baseINS_12basic_stringIcSt11char_traitsIcESaIcEEESaIS5_EE21_M_get_Node_allocatorEv;	.scl	2;	.type	32;	.endef
	.seh_proc	_ZNKSt7__cxx1110_List_baseINS_12basic_stringIcSt11char_traitsIcESaIcEEESaIS5_EE21_M_get_Node_allocatorEv
_ZNKSt7__cxx1110_List_baseINS_12basic_stringIcSt11char_traitsIcESaIcEEESaIS5_EE21_M_get_Node_allocatorEv:
.LFB4074:
	pushq	%rbp
	.seh_pushreg	%rbp
	movq	%rsp, %rbp
	.seh_setframe	%rbp, 0
	.seh_endprologue
	movq	%rcx, 16(%rbp)
	movq	16(%rbp), %rax
	popq	%rbp
	ret
	.seh_endproc
	.section	.text$_ZNSt15__new_allocatorINSt7__cxx1112basic_stringIcSt11char_traitsIcESaIcEEEED2Ev,"x"
	.linkonce discard
	.align 2
	.globl	_ZNSt15__new_allocatorINSt7__cxx1112basic_stringIcSt11char_traitsIcESaIcEEEED2Ev
	.def	_ZNSt15__new_allocatorINSt7__cxx1112basic_stringIcSt11char_traitsIcESaIcEEEED2Ev;	.scl	2;	.type	32;	.endef
	.seh_proc	_ZNSt15__new_allocatorINSt7__cxx1112basic_stringIcSt11char_traitsIcESaIcEEEED2Ev
_ZNSt15__new_allocatorINSt7__cxx1112basic_stringIcSt11char_traitsIcESaIcEEEED2Ev:
.LFB4079:
	pushq	%rbp
	.seh_pushreg	%rbp
	movq	%rsp, %rbp
	.seh_setframe	%rbp, 0
	.seh_endprologue
	movq	%rcx, 16(%rbp)
	nop
	popq	%rbp
	ret
	.seh_endproc
	.section	.text$_ZNSt7__cxx1110_List_baseINS_12basic_stringIcSt11char_traitsIcESaIcEEESaIS5_EEC2EOSaISt10_List_nodeIS5_EE,"x"
	.linkonce discard
	.align 2
	.globl	_ZNSt7__cxx1110_List_baseINS_12basic_stringIcSt11char_traitsIcESaIcEEESaIS5_EEC2EOSaISt10_List_nodeIS5_EE
	.def	_ZNSt7__cxx1110_List_baseINS_12basic_stringIcSt11char_traitsIcESaIcEEESaIS5_EEC2EOSaISt10_List_nodeIS5_EE;	.scl	2;	.type	32;	.endef
	.seh_proc	_ZNSt7__cxx1110_List_baseINS_12basic_stringIcSt11char_traitsIcESaIcEEESaIS5_EEC2EOSaISt10_List_nodeIS5_EE
_ZNSt7__cxx1110_List_baseINS_12basic_stringIcSt11char_traitsIcESaIcEEESaIS5_EEC2EOSaISt10_List_nodeIS5_EE:
.LFB4088:
	pushq	%rbp
	.seh_pushreg	%rbp
	pushq	%rbx
	.seh_pushreg	%rbx
	subq	$40, %rsp
	.seh_stackalloc	40
	leaq	32(%rsp), %rbp
	.seh_setframe	%rbp, 32
	.seh_endprologue
	movq	%rcx, 32(%rbp)
	movq	%rdx, 40(%rbp)
	movq	32(%rbp), %rbx
	movq	40(%rbp), %rax
	movq	%rax, %rcx
	call	_ZSt4moveIRSaISt10_List_nodeINSt7__cxx1112basic_stringIcSt11char_traitsIcESaIcEEEEEEONSt16remove_referenceIT_E4typeEOSB_
	movq	%rax, %rdx
	movq	%rbx, %rcx
	call	_ZNSt7__cxx1110_List_baseINS_12basic_stringIcSt11char_traitsIcESaIcEEESaIS5_EE10_List_implC1EOSaISt10_List_nodeIS5_EE
	nop
	addq	$40, %rsp
	popq	%rbx
	popq	%rbp
	ret
	.seh_endproc
	.section	.text$_ZNSt7__cxx1110_List_baseINS_12basic_stringIcSt11char_traitsIcESaIcEEESaIS5_EE8_M_clearEv,"x"
	.linkonce discard
	.align 2
	.globl	_ZNSt7__cxx1110_List_baseINS_12basic_stringIcSt11char_traitsIcESaIcEEESaIS5_EE8_M_clearEv
	.def	_ZNSt7__cxx1110_List_baseINS_12basic_stringIcSt11char_traitsIcESaIcEEESaIS5_EE8_M_clearEv;	.scl	2;	.type	32;	.endef
	.seh_proc	_ZNSt7__cxx1110_List_baseINS_12basic_stringIcSt11char_traitsIcESaIcEEESaIS5_EE8_M_clearEv
_ZNSt7__cxx1110_List_baseINS_12basic_stringIcSt11char_traitsIcESaIcEEESaIS5_EE8_M_clearEv:
.LFB4090:
	pushq	%rbp
	.seh_pushreg	%rbp
	movq	%rsp, %rbp
	.seh_setframe	%rbp, 0
	subq	$96, %rsp
	.seh_stackalloc	96
	.seh_endprologue
	movq	%rcx, 16(%rbp)
	movq	16(%rbp), %rax
	movq	(%rax), %rax
	movq	%rax, -8(%rbp)
	jmp	.L269
.L270:
	movq	-8(%rbp), %rax
	movq	%rax, -16(%rbp)
	movq	-16(%rbp), %rax
	movq	(%rax), %rax
	movq	%rax, -8(%rbp)
	movq	-16(%rbp), %rax
	movq	%rax, %rcx
	call	_ZNSt10_List_nodeINSt7__cxx1112basic_stringIcSt11char_traitsIcESaIcEEEE9_M_valptrEv
	movq	%rax, -24(%rbp)
	movq	16(%rbp), %rax
	movq	%rax, %rcx
	call	_ZNSt7__cxx1110_List_baseINS_12basic_stringIcSt11char_traitsIcESaIcEEESaIS5_EE21_M_get_Node_allocatorEv
	movq	%rax, -32(%rbp)
	movq	-24(%rbp), %rax
	movq	%rax, -40(%rbp)
	movq	-40(%rbp), %rax
	movq	%rax, -48(%rbp)
	movq	-32(%rbp), %rax
	movq	%rax, -56(%rbp)
	movq	-48(%rbp), %rax
	movq	%rax, %rcx
	call	_ZNSt7__cxx1112basic_stringIcSt11char_traitsIcESaIcEED1Ev
	nop
	nop
	movq	-16(%rbp), %rdx
	movq	16(%rbp), %rax
	movq	%rax, %rcx
	call	_ZNSt7__cxx1110_List_baseINS_12basic_stringIcSt11char_traitsIcESaIcEEESaIS5_EE11_M_put_nodeEPSt10_List_nodeIS5_E
.L269:
	movq	16(%rbp), %rax
	cmpq	%rax, -8(%rbp)
	jne	.L270
	nop
	nop
	addq	$96, %rsp
	popq	%rbp
	ret
	.seh_endproc
	.section	.text$_ZSt4moveIRNSt7__cxx114listINS0_12basic_stringIcSt11char_traitsIcESaIcEEESaIS6_EEEEONSt16remove_referenceIT_E4typeEOSB_,"x"
	.linkonce discard
	.globl	_ZSt4moveIRNSt7__cxx114listINS0_12basic_stringIcSt11char_traitsIcESaIcEEESaIS6_EEEEONSt16remove_referenceIT_E4typeEOSB_
	.def	_ZSt4moveIRNSt7__cxx114listINS0_12basic_stringIcSt11char_traitsIcESaIcEEESaIS6_EEEEONSt16remove_referenceIT_E4typeEOSB_;	.scl	2;	.type	32;	.endef
	.seh_proc	_ZSt4moveIRNSt7__cxx114listINS0_12basic_stringIcSt11char_traitsIcESaIcEEESaIS6_EEEEONSt16remove_referenceIT_E4typeEOSB_
_ZSt4moveIRNSt7__cxx114listINS0_12basic_stringIcSt11char_traitsIcESaIcEEESaIS6_EEEEONSt16remove_referenceIT_E4typeEOSB_:
.LFB4091:
	pushq	%rbp
	.seh_pushreg	%rbp
	movq	%rsp, %rbp
	.seh_setframe	%rbp, 0
	.seh_endprologue
	movq	%rcx, 16(%rbp)
	movq	16(%rbp), %rax
	popq	%rbp
	ret
	.seh_endproc
	.section	.text$_ZNSt7__cxx114listINS_12basic_stringIcSt11char_traitsIcESaIcEEESaIS5_EE6spliceESt20_List_const_iteratorIS5_EOS7_S9_,"x"
	.linkonce discard
	.align 2
	.globl	_ZNSt7__cxx114listINS_12basic_stringIcSt11char_traitsIcESaIcEEESaIS5_EE6spliceESt20_List_const_iteratorIS5_EOS7_S9_
	.def	_ZNSt7__cxx114listINS_12basic_stringIcSt11char_traitsIcESaIcEEESaIS5_EE6spliceESt20_List_const_iteratorIS5_EOS7_S9_;	.scl	2;	.type	32;	.endef
	.seh_proc	_ZNSt7__cxx114listINS_12basic_stringIcSt11char_traitsIcESaIcEEESaIS5_EE6spliceESt20_List_const_iteratorIS5_EOS7_S9_
_ZNSt7__cxx114listINS_12basic_stringIcSt11char_traitsIcESaIcEEESaIS5_EE6spliceESt20_List_const_iteratorIS5_EOS7_S9_:
.LFB4092:
	pushq	%rbp
	.seh_pushreg	%rbp
	pushq	%rbx
	.seh_pushreg	%rbx
	subq	$56, %rsp
	.seh_stackalloc	56
	leaq	48(%rsp), %rbp
	.seh_setframe	%rbp, 48
	.seh_endprologue
	movq	%rcx, 32(%rbp)
	movq	%rdx, 40(%rbp)
	movq	%r8, 48(%rbp)
	movq	%r9, 56(%rbp)
	leaq	56(%rbp), %rax
	movq	%rax, %rcx
	call	_ZNKSt20_List_const_iteratorINSt7__cxx1112basic_stringIcSt11char_traitsIcESaIcEEEE13_M_const_castEv
	movq	%rax, -16(%rbp)
	leaq	-16(%rbp), %rax
	movq	%rax, %rcx
	call	_ZNSt14_List_iteratorINSt7__cxx1112basic_stringIcSt11char_traitsIcESaIcEEEEppEv
	leaq	56(%rbp), %rdx
	leaq	40(%rbp), %rax
	movq	%rax, %rcx
	call	_ZSteqRKSt20_List_const_iteratorINSt7__cxx1112basic_stringIcSt11char_traitsIcESaIcEEEES8_
	testb	%al, %al
	jne	.L274
	leaq	-16(%rbp), %rdx
	leaq	-8(%rbp), %rax
	movq	%rax, %rcx
	call	_ZNSt20_List_const_iteratorINSt7__cxx1112basic_stringIcSt11char_traitsIcESaIcEEEEC1ERKSt14_List_iteratorIS5_E
	leaq	-8(%rbp), %rdx
	leaq	40(%rbp), %rax
	movq	%rax, %rcx
	call	_ZSteqRKSt20_List_const_iteratorINSt7__cxx1112basic_stringIcSt11char_traitsIcESaIcEEEES8_
	testb	%al, %al
	je	.L275
.L274:
	movl	$1, %eax
	jmp	.L276
.L275:
	movl	$0, %eax
.L276:
	testb	%al, %al
	jne	.L280
	movq	48(%rbp), %rax
	movq	%rax, %rcx
	call	_ZSt11__addressofINSt7__cxx114listINS0_12basic_stringIcSt11char_traitsIcESaIcEEESaIS6_EEEEPT_RS9_
	cmpq	%rax, 32(%rbp)
	setne	%al
	testb	%al, %al
	je	.L279
	movq	48(%rbp), %rdx
	movq	32(%rbp), %rax
	movq	%rax, %rcx
	call	_ZNSt7__cxx114listINS_12basic_stringIcSt11char_traitsIcESaIcEEESaIS5_EE25_M_check_equal_allocatorsERKS7_
.L279:
	leaq	56(%rbp), %rax
	movq	%rax, %rcx
	call	_ZNKSt20_List_const_iteratorINSt7__cxx1112basic_stringIcSt11char_traitsIcESaIcEEEE13_M_const_castEv
	movq	%rax, %rbx
	leaq	40(%rbp), %rax
	movq	%rax, %rcx
	call	_ZNKSt20_List_const_iteratorINSt7__cxx1112basic_stringIcSt11char_traitsIcESaIcEEEE13_M_const_castEv
	movq	%rax, %rdx
	movq	-16(%rbp), %rcx
	movq	32(%rbp), %rax
	movq	%rcx, %r9
	movq	%rbx, %r8
	movq	%rax, %rcx
	call	_ZNSt7__cxx114listINS_12basic_stringIcSt11char_traitsIcESaIcEEESaIS5_EE11_M_transferESt14_List_iteratorIS5_ES9_S9_
	movq	32(%rbp), %rax
	movl	$1, %edx
	movq	%rax, %rcx
	call	_ZNSt7__cxx1110_List_baseINS_12basic_stringIcSt11char_traitsIcESaIcEEESaIS5_EE11_M_inc_sizeEy
	movq	48(%rbp), %rax
	movl	$1, %edx
	movq	%rax, %rcx
	call	_ZNSt7__cxx1110_List_baseINS_12basic_stringIcSt11char_traitsIcESaIcEEESaIS5_EE11_M_dec_sizeEy
	jmp	.L273
.L280:
	nop
.L273:
	addq	$56, %rsp
	popq	%rbx
	popq	%rbp
	ret
	.seh_endproc
	.section	.text$_ZNSt15__new_allocatorINSt7__cxx114listINS0_12basic_stringIcSt11char_traitsIcESaIcEEESaIS6_EEEE10deallocateEPS8_y,"x"
	.linkonce discard
	.align 2
	.globl	_ZNSt15__new_allocatorINSt7__cxx114listINS0_12basic_stringIcSt11char_traitsIcESaIcEEESaIS6_EEEE10deallocateEPS8_y
	.def	_ZNSt15__new_allocatorINSt7__cxx114listINS0_12basic_stringIcSt11char_traitsIcESaIcEEESaIS6_EEEE10deallocateEPS8_y;	.scl	2;	.type	32;	.endef
	.seh_proc	_ZNSt15__new_allocatorINSt7__cxx114listINS0_12basic_stringIcSt11char_traitsIcESaIcEEESaIS6_EEEE10deallocateEPS8_y
_ZNSt15__new_allocatorINSt7__cxx114listINS0_12basic_stringIcSt11char_traitsIcESaIcEEESaIS6_EEEE10deallocateEPS8_y:
.LFB4112:
	pushq	%rbp
	.seh_pushreg	%rbp
	movq	%rsp, %rbp
	.seh_setframe	%rbp, 0
	subq	$32, %rsp
	.seh_stackalloc	32
	.seh_endprologue
	movq	%rcx, 16(%rbp)
	movq	%rdx, 24(%rbp)
	movq	%r8, 32(%rbp)
	movq	32(%rbp), %rdx
	movq	%rdx, %rax
	addq	%rax, %rax
	addq	%rdx, %rax
	salq	$3, %rax
	movq	%rax, %rdx
	movq	24(%rbp), %rax
	movq	%rax, %rcx
	call	_ZdlPvy
	nop
	addq	$32, %rsp
	popq	%rbp
	ret
	.seh_endproc
	.section	.text$_ZNSt6vectorINSt7__cxx114listINS0_12basic_stringIcSt11char_traitsIcESaIcEEESaIS6_EEESaIS8_EE11_S_max_sizeERKS9_,"x"
	.linkonce discard
	.globl	_ZNSt6vectorINSt7__cxx114listINS0_12basic_stringIcSt11char_traitsIcESaIcEEESaIS6_EEESaIS8_EE11_S_max_sizeERKS9_
	.def	_ZNSt6vectorINSt7__cxx114listINS0_12basic_stringIcSt11char_traitsIcESaIcEEESaIS6_EEESaIS8_EE11_S_max_sizeERKS9_;	.scl	2;	.type	32;	.endef
	.seh_proc	_ZNSt6vectorINSt7__cxx114listINS0_12basic_stringIcSt11char_traitsIcESaIcEEESaIS6_EEESaIS8_EE11_S_max_sizeERKS9_
_ZNSt6vectorINSt7__cxx114listINS0_12basic_stringIcSt11char_traitsIcESaIcEEESaIS6_EEESaIS8_EE11_S_max_sizeERKS9_:
.LFB4113:
	pushq	%rbp
	.seh_pushreg	%rbp
	movq	%rsp, %rbp
	.seh_setframe	%rbp, 0
	subq	$80, %rsp
	.seh_stackalloc	80
	.seh_endprologue
	movq	%rcx, 16(%rbp)
	movabsq	$384307168202282325, %rax
	movq	%rax, -32(%rbp)
	movq	16(%rbp), %rax
	movq	%rax, -8(%rbp)
	movq	-8(%rbp), %rax
	movq	%rax, -16(%rbp)
	movq	-16(%rbp), %rax
	movq	%rax, -24(%rbp)
	movabsq	$384307168202282325, %rax
	nop
	nop
	movq	%rax, -40(%rbp)
	leaq	-40(%rbp), %rdx
	leaq	-32(%rbp), %rax
	movq	%rax, %rcx
	call	_ZSt3minIyERKT_S2_S2_
	movq	(%rax), %rax
	addq	$80, %rsp
	popq	%rbp
	ret
	.seh_endproc
	.section	.text$_ZNKSt12_Vector_baseINSt7__cxx114listINS0_12basic_stringIcSt11char_traitsIcESaIcEEESaIS6_EEESaIS8_EE19_M_get_Tp_allocatorEv,"x"
	.linkonce discard
	.align 2
	.globl	_ZNKSt12_Vector_baseINSt7__cxx114listINS0_12basic_stringIcSt11char_traitsIcESaIcEEESaIS6_EEESaIS8_EE19_M_get_Tp_allocatorEv
	.def	_ZNKSt12_Vector_baseINSt7__cxx114listINS0_12basic_stringIcSt11char_traitsIcESaIcEEESaIS6_EEESaIS8_EE19_M_get_Tp_allocatorEv;	.scl	2;	.type	32;	.endef
	.seh_proc	_ZNKSt12_Vector_baseINSt7__cxx114listINS0_12basic_stringIcSt11char_traitsIcESaIcEEESaIS6_EEESaIS8_EE19_M_get_Tp_allocatorEv
_ZNKSt12_Vector_baseINSt7__cxx114listINS0_12basic_stringIcSt11char_traitsIcESaIcEEESaIS6_EEESaIS8_EE19_M_get_Tp_allocatorEv:
.LFB4114:
	pushq	%rbp
	.seh_pushreg	%rbp
	movq	%rsp, %rbp
	.seh_setframe	%rbp, 0
	.seh_endprologue
	movq	%rcx, 16(%rbp)
	movq	16(%rbp), %rax
	popq	%rbp
	ret
	.seh_endproc
	.section	.text$_ZSt25__uninitialized_default_nIPNSt7__cxx114listINS0_12basic_stringIcSt11char_traitsIcESaIcEEESaIS6_EEEyET_SA_T0_,"x"
	.linkonce discard
	.globl	_ZSt25__uninitialized_default_nIPNSt7__cxx114listINS0_12basic_stringIcSt11char_traitsIcESaIcEEESaIS6_EEEyET_SA_T0_
	.def	_ZSt25__uninitialized_default_nIPNSt7__cxx114listINS0_12basic_stringIcSt11char_traitsIcESaIcEEESaIS6_EEEyET_SA_T0_;	.scl	2;	.type	32;	.endef
	.seh_proc	_ZSt25__uninitialized_default_nIPNSt7__cxx114listINS0_12basic_stringIcSt11char_traitsIcESaIcEEESaIS6_EEEyET_SA_T0_
_ZSt25__uninitialized_default_nIPNSt7__cxx114listINS0_12basic_stringIcSt11char_traitsIcESaIcEEESaIS6_EEEyET_SA_T0_:
.LFB4115:
	pushq	%rbp
	.seh_pushreg	%rbp
	movq	%rsp, %rbp
	.seh_setframe	%rbp, 0
	subq	$48, %rsp
	.seh_stackalloc	48
	.seh_endprologue
	movq	%rcx, 16(%rbp)
	movq	%rdx, 24(%rbp)
	movb	$1, -1(%rbp)
	movq	24(%rbp), %rdx
	movq	16(%rbp), %rax
	movq	%rax, %rcx
	call	_ZNSt27__uninitialized_default_n_1ILb0EE18__uninit_default_nIPNSt7__cxx114listINS2_12basic_stringIcSt11char_traitsIcESaIcEEESaIS8_EEEyEET_SC_T0_
	addq	$48, %rsp
	popq	%rbp
	ret
	.seh_endproc
	.section	.text$_ZSt12__relocate_aIPNSt7__cxx114listINS0_12basic_stringIcSt11char_traitsIcESaIcEEESaIS6_EEES9_SaIS8_EET0_T_SC_SB_RT1_,"x"
	.linkonce discard
	.globl	_ZSt12__relocate_aIPNSt7__cxx114listINS0_12basic_stringIcSt11char_traitsIcESaIcEEESaIS6_EEES9_SaIS8_EET0_T_SC_SB_RT1_
	.def	_ZSt12__relocate_aIPNSt7__cxx114listINS0_12basic_stringIcSt11char_traitsIcESaIcEEESaIS6_EEES9_SaIS8_EET0_T_SC_SB_RT1_;	.scl	2;	.type	32;	.endef
	.seh_proc	_ZSt12__relocate_aIPNSt7__cxx114listINS0_12basic_stringIcSt11char_traitsIcESaIcEEESaIS6_EEES9_SaIS8_EET0_T_SC_SB_RT1_
_ZSt12__relocate_aIPNSt7__cxx114listINS0_12basic_stringIcSt11char_traitsIcESaIcEEESaIS6_EEES9_SaIS8_EET0_T_SC_SB_RT1_:
.LFB4117:
	pushq	%rbp
	.seh_pushreg	%rbp
	pushq	%rsi
	.seh_pushreg	%rsi
	pushq	%rbx
	.seh_pushreg	%rbx
	subq	$32, %rsp
	.seh_stackalloc	32
	leaq	32(%rsp), %rbp
	.seh_setframe	%rbp, 32
	.seh_endprologue
	movq	%rcx, 32(%rbp)
	movq	%rdx, 40(%rbp)
	movq	%r8, 48(%rbp)
	movq	%r9, 56(%rbp)
	movq	48(%rbp), %rax
	movq	%rax, %rcx
	call	_ZSt12__niter_baseIPNSt7__cxx114listINS0_12basic_stringIcSt11char_traitsIcESaIcEEESaIS6_EEEET_SA_
	movq	%rax, %rsi
	movq	40(%rbp), %rax
	movq	%rax, %rcx
	call	_ZSt12__niter_baseIPNSt7__cxx114listINS0_12basic_stringIcSt11char_traitsIcESaIcEEESaIS6_EEEET_SA_
	movq	%rax, %rbx
	movq	32(%rbp), %rax
	movq	%rax, %rcx
	call	_ZSt12__niter_baseIPNSt7__cxx114listINS0_12basic_stringIcSt11char_traitsIcESaIcEEESaIS6_EEEET_SA_
	movq	56(%rbp), %rdx
	movq	%rdx, %r9
	movq	%rsi, %r8
	movq	%rbx, %rdx
	movq	%rax, %rcx
	call	_ZSt14__relocate_a_1IPNSt7__cxx114listINS0_12basic_stringIcSt11char_traitsIcESaIcEEESaIS6_EEES9_SaIS8_EET0_T_SC_SB_RT1_
	addq	$32, %rsp
	popq	%rbx
	popq	%rsi
	popq	%rbp
	ret
	.seh_endproc
	.section	.text$_ZSt11__addressofINSt7__cxx114listINS0_12basic_stringIcSt11char_traitsIcESaIcEEESaIS6_EEEEPT_RS9_,"x"
	.linkonce discard
	.globl	_ZSt11__addressofINSt7__cxx114listINS0_12basic_stringIcSt11char_traitsIcESaIcEEESaIS6_EEEEPT_RS9_
	.def	_ZSt11__addressofINSt7__cxx114listINS0_12basic_stringIcSt11char_traitsIcESaIcEEESaIS6_EEEEPT_RS9_;	.scl	2;	.type	32;	.endef
	.seh_proc	_ZSt11__addressofINSt7__cxx114listINS0_12basic_stringIcSt11char_traitsIcESaIcEEESaIS6_EEEEPT_RS9_
_ZSt11__addressofINSt7__cxx114listINS0_12basic_stringIcSt11char_traitsIcESaIcEEESaIS6_EEEEPT_RS9_:
.LFB4118:
	pushq	%rbp
	.seh_pushreg	%rbp
	movq	%rsp, %rbp
	.seh_setframe	%rbp, 0
	.seh_endprologue
	movq	%rcx, 16(%rbp)
	movq	16(%rbp), %rax
	popq	%rbp
	ret
	.seh_endproc
	.section	.text$_ZSt8_DestroyINSt7__cxx114listINS0_12basic_stringIcSt11char_traitsIcESaIcEEESaIS6_EEEEvPT_,"x"
	.linkonce discard
	.globl	_ZSt8_DestroyINSt7__cxx114listINS0_12basic_stringIcSt11char_traitsIcESaIcEEESaIS6_EEEEvPT_
	.def	_ZSt8_DestroyINSt7__cxx114listINS0_12basic_stringIcSt11char_traitsIcESaIcEEESaIS6_EEEEvPT_;	.scl	2;	.type	32;	.endef
	.seh_proc	_ZSt8_DestroyINSt7__cxx114listINS0_12basic_stringIcSt11char_traitsIcESaIcEEESaIS6_EEEEvPT_
_ZSt8_DestroyINSt7__cxx114listINS0_12basic_stringIcSt11char_traitsIcESaIcEEESaIS6_EEEEvPT_:
.LFB4119:
	pushq	%rbp
	.seh_pushreg	%rbp
	movq	%rsp, %rbp
	.seh_setframe	%rbp, 0
	subq	$32, %rsp
	.seh_stackalloc	32
	.seh_endprologue
	movq	%rcx, 16(%rbp)
	movq	16(%rbp), %rax
	movq	%rax, %rcx
	call	_ZNSt7__cxx114listINS_12basic_stringIcSt11char_traitsIcESaIcEEESaIS5_EED1Ev
	nop
	addq	$32, %rsp
	popq	%rbp
	ret
	.seh_endproc
	.section	.text$_ZN9__gnu_cxx16__aligned_membufINSt7__cxx1112basic_stringIcSt11char_traitsIcESaIcEEEE7_M_addrEv,"x"
	.linkonce discard
	.align 2
	.globl	_ZN9__gnu_cxx16__aligned_membufINSt7__cxx1112basic_stringIcSt11char_traitsIcESaIcEEEE7_M_addrEv
	.def	_ZN9__gnu_cxx16__aligned_membufINSt7__cxx1112basic_stringIcSt11char_traitsIcESaIcEEEE7_M_addrEv;	.scl	2;	.type	32;	.endef
	.seh_proc	_ZN9__gnu_cxx16__aligned_membufINSt7__cxx1112basic_stringIcSt11char_traitsIcESaIcEEEE7_M_addrEv
_ZN9__gnu_cxx16__aligned_membufINSt7__cxx1112basic_stringIcSt11char_traitsIcESaIcEEEE7_M_addrEv:
.LFB4120:
	pushq	%rbp
	.seh_pushreg	%rbp
	movq	%rsp, %rbp
	.seh_setframe	%rbp, 0
	.seh_endprologue
	movq	%rcx, 16(%rbp)
	movq	16(%rbp), %rax
	popq	%rbp
	ret
	.seh_endproc
	.section	.text$_ZNSt7__cxx1110_List_baseINS_12basic_stringIcSt11char_traitsIcESaIcEEESaIS5_EE11_M_get_nodeEv,"x"
	.linkonce discard
	.align 2
	.globl	_ZNSt7__cxx1110_List_baseINS_12basic_stringIcSt11char_traitsIcESaIcEEESaIS5_EE11_M_get_nodeEv
	.def	_ZNSt7__cxx1110_List_baseINS_12basic_stringIcSt11char_traitsIcESaIcEEESaIS5_EE11_M_get_nodeEv;	.scl	2;	.type	32;	.endef
	.seh_proc	_ZNSt7__cxx1110_List_baseINS_12basic_stringIcSt11char_traitsIcESaIcEEESaIS5_EE11_M_get_nodeEv
_ZNSt7__cxx1110_List_baseINS_12basic_stringIcSt11char_traitsIcESaIcEEESaIS5_EE11_M_get_nodeEv:
.LFB4121:
	pushq	%rbp
	.seh_pushreg	%rbp
	movq	%rsp, %rbp
	.seh_setframe	%rbp, 0
	subq	$48, %rsp
	.seh_stackalloc	48
	.seh_endprologue
	movq	%rcx, 16(%rbp)
	movq	16(%rbp), %rax
	movq	%rax, -8(%rbp)
	movq	$1, -16(%rbp)
	movq	-16(%rbp), %rdx
	movq	-8(%rbp), %rax
	movl	$0, %r8d
	movq	%rax, %rcx
	call	_ZNSt15__new_allocatorISt10_List_nodeINSt7__cxx1112basic_stringIcSt11char_traitsIcESaIcEEEEE8allocateEyPKv
	nop
	addq	$48, %rsp
	popq	%rbp
	ret
	.seh_endproc
	.section	.text$_ZNSt7__cxx1110_List_baseINS_12basic_stringIcSt11char_traitsIcESaIcEEESaIS5_EE21_M_get_Node_allocatorEv,"x"
	.linkonce discard
	.align 2
	.globl	_ZNSt7__cxx1110_List_baseINS_12basic_stringIcSt11char_traitsIcESaIcEEESaIS5_EE21_M_get_Node_allocatorEv
	.def	_ZNSt7__cxx1110_List_baseINS_12basic_stringIcSt11char_traitsIcESaIcEEESaIS5_EE21_M_get_Node_allocatorEv;	.scl	2;	.type	32;	.endef
	.seh_proc	_ZNSt7__cxx1110_List_baseINS_12basic_stringIcSt11char_traitsIcESaIcEEESaIS5_EE21_M_get_Node_allocatorEv
_ZNSt7__cxx1110_List_baseINS_12basic_stringIcSt11char_traitsIcESaIcEEESaIS5_EE21_M_get_Node_allocatorEv:
.LFB4122:
	pushq	%rbp
	.seh_pushreg	%rbp
	movq	%rsp, %rbp
	.seh_setframe	%rbp, 0
	.seh_endprologue
	movq	%rcx, 16(%rbp)
	movq	16(%rbp), %rax
	popq	%rbp
	ret
	.seh_endproc
	.section	.text$_ZNSt15__allocated_ptrISaISt10_List_nodeINSt7__cxx1112basic_stringIcSt11char_traitsIcESaIcEEEEEEC1ERS8_PS7_,"x"
	.linkonce discard
	.align 2
	.globl	_ZNSt15__allocated_ptrISaISt10_List_nodeINSt7__cxx1112basic_stringIcSt11char_traitsIcESaIcEEEEEEC1ERS8_PS7_
	.def	_ZNSt15__allocated_ptrISaISt10_List_nodeINSt7__cxx1112basic_stringIcSt11char_traitsIcESaIcEEEEEEC1ERS8_PS7_;	.scl	2;	.type	32;	.endef
	.seh_proc	_ZNSt15__allocated_ptrISaISt10_List_nodeINSt7__cxx1112basic_stringIcSt11char_traitsIcESaIcEEEEEEC1ERS8_PS7_
_ZNSt15__allocated_ptrISaISt10_List_nodeINSt7__cxx1112basic_stringIcSt11char_traitsIcESaIcEEEEEEC1ERS8_PS7_:
.LFB4125:
	pushq	%rbp
	.seh_pushreg	%rbp
	movq	%rsp, %rbp
	.seh_setframe	%rbp, 0
	subq	$32, %rsp
	.seh_stackalloc	32
	.seh_endprologue
	movq	%rcx, 16(%rbp)
	movq	%rdx, 24(%rbp)
	movq	%r8, 32(%rbp)
	movq	24(%rbp), %rax
	movq	%rax, %rcx
	call	_ZSt11__addressofISaISt10_List_nodeINSt7__cxx1112basic_stringIcSt11char_traitsIcESaIcEEEEEEPT_RS9_
	movq	16(%rbp), %rdx
	movq	%rax, (%rdx)
	movq	16(%rbp), %rax
	movq	32(%rbp), %rdx
	movq	%rdx, 8(%rax)
	nop
	addq	$32, %rsp
	popq	%rbp
	ret
	.seh_endproc
	.section	.text$_ZNSt15__allocated_ptrISaISt10_List_nodeINSt7__cxx1112basic_stringIcSt11char_traitsIcESaIcEEEEEED1Ev,"x"
	.linkonce discard
	.align 2
	.globl	_ZNSt15__allocated_ptrISaISt10_List_nodeINSt7__cxx1112basic_stringIcSt11char_traitsIcESaIcEEEEEED1Ev
	.def	_ZNSt15__allocated_ptrISaISt10_List_nodeINSt7__cxx1112basic_stringIcSt11char_traitsIcESaIcEEEEEED1Ev;	.scl	2;	.type	32;	.endef
	.seh_proc	_ZNSt15__allocated_ptrISaISt10_List_nodeINSt7__cxx1112basic_stringIcSt11char_traitsIcESaIcEEEEEED1Ev
_ZNSt15__allocated_ptrISaISt10_List_nodeINSt7__cxx1112basic_stringIcSt11char_traitsIcESaIcEEEEEED1Ev:
.LFB4128:
	pushq	%rbp
	.seh_pushreg	%rbp
	movq	%rsp, %rbp
	.seh_setframe	%rbp, 0
	subq	$64, %rsp
	.seh_stackalloc	64
	.seh_endprologue
	movq	%rcx, 16(%rbp)
	movq	16(%rbp), %rax
	movq	8(%rax), %rax
	testq	%rax, %rax
	je	.L307
	movq	16(%rbp), %rax
	movq	8(%rax), %rax
	movq	16(%rbp), %rdx
	movq	(%rdx), %rdx
	movq	%rdx, -8(%rbp)
	movq	%rax, -16(%rbp)
	movq	$1, -24(%rbp)
	movq	-24(%rbp), %rcx
	movq	-16(%rbp), %rdx
	movq	-8(%rbp), %rax
	movq	%rcx, %r8
	movq	%rax, %rcx
	call	_ZNSt15__new_allocatorISt10_List_nodeINSt7__cxx1112basic_stringIcSt11char_traitsIcESaIcEEEEE10deallocateEPS7_y
	nop
.L307:
	nop
	addq	$64, %rsp
	popq	%rbp
	ret
	.seh_endproc
	.section	.text$_ZNSt15__allocated_ptrISaISt10_List_nodeINSt7__cxx1112basic_stringIcSt11char_traitsIcESaIcEEEEEEaSEDn,"x"
	.linkonce discard
	.align 2
	.globl	_ZNSt15__allocated_ptrISaISt10_List_nodeINSt7__cxx1112basic_stringIcSt11char_traitsIcESaIcEEEEEEaSEDn
	.def	_ZNSt15__allocated_ptrISaISt10_List_nodeINSt7__cxx1112basic_stringIcSt11char_traitsIcESaIcEEEEEEaSEDn;	.scl	2;	.type	32;	.endef
	.seh_proc	_ZNSt15__allocated_ptrISaISt10_List_nodeINSt7__cxx1112basic_stringIcSt11char_traitsIcESaIcEEEEEEaSEDn
_ZNSt15__allocated_ptrISaISt10_List_nodeINSt7__cxx1112basic_stringIcSt11char_traitsIcESaIcEEEEEEaSEDn:
.LFB4130:
	pushq	%rbp
	.seh_pushreg	%rbp
	movq	%rsp, %rbp
	.seh_setframe	%rbp, 0
	.seh_endprologue
	movq	%rcx, 16(%rbp)
	movq	%rdx, 24(%rbp)
	movq	16(%rbp), %rax
	movq	$0, 8(%rax)
	movq	16(%rbp), %rax
	popq	%rbp
	ret
	.seh_endproc
	.section	.text$_ZNK9__gnu_cxx16__aligned_membufINSt7__cxx1112basic_stringIcSt11char_traitsIcESaIcEEEE7_M_addrEv,"x"
	.linkonce discard
	.align 2
	.globl	_ZNK9__gnu_cxx16__aligned_membufINSt7__cxx1112basic_stringIcSt11char_traitsIcESaIcEEEE7_M_addrEv
	.def	_ZNK9__gnu_cxx16__aligned_membufINSt7__cxx1112basic_stringIcSt11char_traitsIcESaIcEEEE7_M_addrEv;	.scl	2;	.type	32;	.endef
	.seh_proc	_ZNK9__gnu_cxx16__aligned_membufINSt7__cxx1112basic_stringIcSt11char_traitsIcESaIcEEEE7_M_addrEv
_ZNK9__gnu_cxx16__aligned_membufINSt7__cxx1112basic_stringIcSt11char_traitsIcESaIcEEEE7_M_addrEv:
.LFB4131:
	pushq	%rbp
	.seh_pushreg	%rbp
	movq	%rsp, %rbp
	.seh_setframe	%rbp, 0
	.seh_endprologue
	movq	%rcx, 16(%rbp)
	movq	16(%rbp), %rax
	popq	%rbp
	ret
	.seh_endproc
	.section	.text$_ZNSt15__new_allocatorISt10_List_nodeINSt7__cxx1112basic_stringIcSt11char_traitsIcESaIcEEEEED2Ev,"x"
	.linkonce discard
	.align 2
	.globl	_ZNSt15__new_allocatorISt10_List_nodeINSt7__cxx1112basic_stringIcSt11char_traitsIcESaIcEEEEED2Ev
	.def	_ZNSt15__new_allocatorISt10_List_nodeINSt7__cxx1112basic_stringIcSt11char_traitsIcESaIcEEEEED2Ev;	.scl	2;	.type	32;	.endef
	.seh_proc	_ZNSt15__new_allocatorISt10_List_nodeINSt7__cxx1112basic_stringIcSt11char_traitsIcESaIcEEEEED2Ev
_ZNSt15__new_allocatorISt10_List_nodeINSt7__cxx1112basic_stringIcSt11char_traitsIcESaIcEEEEED2Ev:
.LFB4139:
	pushq	%rbp
	.seh_pushreg	%rbp
	movq	%rsp, %rbp
	.seh_setframe	%rbp, 0
	.seh_endprologue
	movq	%rcx, 16(%rbp)
	nop
	popq	%rbp
	ret
	.seh_endproc
	.section	.text$_ZSt4moveIRSaISt10_List_nodeINSt7__cxx1112basic_stringIcSt11char_traitsIcESaIcEEEEEEONSt16remove_referenceIT_E4typeEOSB_,"x"
	.linkonce discard
	.globl	_ZSt4moveIRSaISt10_List_nodeINSt7__cxx1112basic_stringIcSt11char_traitsIcESaIcEEEEEEONSt16remove_referenceIT_E4typeEOSB_
	.def	_ZSt4moveIRSaISt10_List_nodeINSt7__cxx1112basic_stringIcSt11char_traitsIcESaIcEEEEEEONSt16remove_referenceIT_E4typeEOSB_;	.scl	2;	.type	32;	.endef
	.seh_proc	_ZSt4moveIRSaISt10_List_nodeINSt7__cxx1112basic_stringIcSt11char_traitsIcESaIcEEEEEEONSt16remove_referenceIT_E4typeEOSB_
_ZSt4moveIRSaISt10_List_nodeINSt7__cxx1112basic_stringIcSt11char_traitsIcESaIcEEEEEEONSt16remove_referenceIT_E4typeEOSB_:
.LFB4141:
	pushq	%rbp
	.seh_pushreg	%rbp
	movq	%rsp, %rbp
	.seh_setframe	%rbp, 0
	.seh_endprologue
	movq	%rcx, 16(%rbp)
	movq	16(%rbp), %rax
	popq	%rbp
	ret
	.seh_endproc
	.section	.text$_ZNSt7__cxx1110_List_baseINS_12basic_stringIcSt11char_traitsIcESaIcEEESaIS5_EE10_List_implC1EOSaISt10_List_nodeIS5_EE,"x"
	.linkonce discard
	.align 2
	.globl	_ZNSt7__cxx1110_List_baseINS_12basic_stringIcSt11char_traitsIcESaIcEEESaIS5_EE10_List_implC1EOSaISt10_List_nodeIS5_EE
	.def	_ZNSt7__cxx1110_List_baseINS_12basic_stringIcSt11char_traitsIcESaIcEEESaIS5_EE10_List_implC1EOSaISt10_List_nodeIS5_EE;	.scl	2;	.type	32;	.endef
	.seh_proc	_ZNSt7__cxx1110_List_baseINS_12basic_stringIcSt11char_traitsIcESaIcEEESaIS5_EE10_List_implC1EOSaISt10_List_nodeIS5_EE
_ZNSt7__cxx1110_List_baseINS_12basic_stringIcSt11char_traitsIcESaIcEEESaIS5_EE10_List_implC1EOSaISt10_List_nodeIS5_EE:
.LFB4144:
	pushq	%rbp
	.seh_pushreg	%rbp
	movq	%rsp, %rbp
	.seh_setframe	%rbp, 0
	subq	$64, %rsp
	.seh_stackalloc	64
	.seh_endprologue
	movq	%rcx, 16(%rbp)
	movq	%rdx, 24(%rbp)
	movq	24(%rbp), %rax
	movq	%rax, %rcx
	call	_ZSt4moveIRSaISt10_List_nodeINSt7__cxx1112basic_stringIcSt11char_traitsIcESaIcEEEEEEONSt16remove_referenceIT_E4typeEOSB_
	movq	16(%rbp), %rdx
	movq	%rdx, -8(%rbp)
	movq	%rax, -16(%rbp)
	movq	-8(%rbp), %rax
	movq	%rax, -24(%rbp)
	movq	-16(%rbp), %rax
	movq	%rax, -32(%rbp)
	nop
	nop
	movq	16(%rbp), %rax
	movq	%rax, %rcx
	call	_ZNSt8__detail17_List_node_headerC1Ev
	nop
	addq	$64, %rsp
	popq	%rbp
	ret
	.seh_endproc
	.section	.text$_ZNSt7__cxx1110_List_baseINS_12basic_stringIcSt11char_traitsIcESaIcEEESaIS5_EE11_M_put_nodeEPSt10_List_nodeIS5_E,"x"
	.linkonce discard
	.align 2
	.globl	_ZNSt7__cxx1110_List_baseINS_12basic_stringIcSt11char_traitsIcESaIcEEESaIS5_EE11_M_put_nodeEPSt10_List_nodeIS5_E
	.def	_ZNSt7__cxx1110_List_baseINS_12basic_stringIcSt11char_traitsIcESaIcEEESaIS5_EE11_M_put_nodeEPSt10_List_nodeIS5_E;	.scl	2;	.type	32;	.endef
	.seh_proc	_ZNSt7__cxx1110_List_baseINS_12basic_stringIcSt11char_traitsIcESaIcEEESaIS5_EE11_M_put_nodeEPSt10_List_nodeIS5_E
_ZNSt7__cxx1110_List_baseINS_12basic_stringIcSt11char_traitsIcESaIcEEESaIS5_EE11_M_put_nodeEPSt10_List_nodeIS5_E:
.LFB4146:
	pushq	%rbp
	.seh_pushreg	%rbp
	movq	%rsp, %rbp
	.seh_setframe	%rbp, 0
	subq	$64, %rsp
	.seh_stackalloc	64
	.seh_endprologue
	movq	%rcx, 16(%rbp)
	movq	%rdx, 24(%rbp)
	movq	16(%rbp), %rax
	movq	%rax, -8(%rbp)
	movq	24(%rbp), %rax
	movq	%rax, -16(%rbp)
	movq	$1, -24(%rbp)
	movq	-24(%rbp), %rcx
	movq	-16(%rbp), %rdx
	movq	-8(%rbp), %rax
	movq	%rcx, %r8
	movq	%rax, %rcx
	call	_ZNSt15__new_allocatorISt10_List_nodeINSt7__cxx1112basic_stringIcSt11char_traitsIcESaIcEEEEE10deallocateEPS7_y
	nop
	nop
	addq	$64, %rsp
	popq	%rbp
	ret
	.seh_endproc
	.section	.text$_ZNKSt20_List_const_iteratorINSt7__cxx1112basic_stringIcSt11char_traitsIcESaIcEEEE13_M_const_castEv,"x"
	.linkonce discard
	.align 2
	.globl	_ZNKSt20_List_const_iteratorINSt7__cxx1112basic_stringIcSt11char_traitsIcESaIcEEEE13_M_const_castEv
	.def	_ZNKSt20_List_const_iteratorINSt7__cxx1112basic_stringIcSt11char_traitsIcESaIcEEEE13_M_const_castEv;	.scl	2;	.type	32;	.endef
	.seh_proc	_ZNKSt20_List_const_iteratorINSt7__cxx1112basic_stringIcSt11char_traitsIcESaIcEEEE13_M_const_castEv
_ZNKSt20_List_const_iteratorINSt7__cxx1112basic_stringIcSt11char_traitsIcESaIcEEEE13_M_const_castEv:
.LFB4147:
	pushq	%rbp
	.seh_pushreg	%rbp
	movq	%rsp, %rbp
	.seh_setframe	%rbp, 0
	subq	$48, %rsp
	.seh_stackalloc	48
	.seh_endprologue
	movq	%rcx, 16(%rbp)
	movq	16(%rbp), %rax
	movq	(%rax), %rdx
	leaq	-8(%rbp), %rax
	movq	%rax, %rcx
	call	_ZNSt14_List_iteratorINSt7__cxx1112basic_stringIcSt11char_traitsIcESaIcEEEEC1EPNSt8__detail15_List_node_baseE
	movq	-8(%rbp), %rax
	addq	$48, %rsp
	popq	%rbp
	ret
	.seh_endproc
	.section	.text$_ZSteqRKSt20_List_const_iteratorINSt7__cxx1112basic_stringIcSt11char_traitsIcESaIcEEEES8_,"x"
	.linkonce discard
	.globl	_ZSteqRKSt20_List_const_iteratorINSt7__cxx1112basic_stringIcSt11char_traitsIcESaIcEEEES8_
	.def	_ZSteqRKSt20_List_const_iteratorINSt7__cxx1112basic_stringIcSt11char_traitsIcESaIcEEEES8_;	.scl	2;	.type	32;	.endef
	.seh_proc	_ZSteqRKSt20_List_const_iteratorINSt7__cxx1112basic_stringIcSt11char_traitsIcESaIcEEEES8_
_ZSteqRKSt20_List_const_iteratorINSt7__cxx1112basic_stringIcSt11char_traitsIcESaIcEEEES8_:
.LFB4148:
	pushq	%rbp
	.seh_pushreg	%rbp
	movq	%rsp, %rbp
	.seh_setframe	%rbp, 0
	.seh_endprologue
	movq	%rcx, 16(%rbp)
	movq	%rdx, 24(%rbp)
	movq	16(%rbp), %rax
	movq	(%rax), %rdx
	movq	24(%rbp), %rax
	movq	(%rax), %rax
	cmpq	%rax, %rdx
	sete	%al
	popq	%rbp
	ret
	.seh_endproc
	.section	.text$_ZNSt7__cxx114listINS_12basic_stringIcSt11char_traitsIcESaIcEEESaIS5_EE25_M_check_equal_allocatorsERKS7_,"x"
	.linkonce discard
	.align 2
	.globl	_ZNSt7__cxx114listINS_12basic_stringIcSt11char_traitsIcESaIcEEESaIS5_EE25_M_check_equal_allocatorsERKS7_
	.def	_ZNSt7__cxx114listINS_12basic_stringIcSt11char_traitsIcESaIcEEESaIS5_EE25_M_check_equal_allocatorsERKS7_;	.scl	2;	.type	32;	.endef
	.seh_proc	_ZNSt7__cxx114listINS_12basic_stringIcSt11char_traitsIcESaIcEEESaIS5_EE25_M_check_equal_allocatorsERKS7_
_ZNSt7__cxx114listINS_12basic_stringIcSt11char_traitsIcESaIcEEESaIS5_EE25_M_check_equal_allocatorsERKS7_:
.LFB4149:
	pushq	%rbp
	.seh_pushreg	%rbp
	pushq	%rbx
	.seh_pushreg	%rbx
	subq	$56, %rsp
	.seh_stackalloc	56
	leaq	48(%rsp), %rbp
	.seh_setframe	%rbp, 48
	.seh_endprologue
	movq	%rcx, 32(%rbp)
	movq	%rdx, 40(%rbp)
	movq	40(%rbp), %rax
	movq	%rax, %rcx
	call	_ZNKSt7__cxx1110_List_baseINS_12basic_stringIcSt11char_traitsIcESaIcEEESaIS5_EE21_M_get_Node_allocatorEv
	movq	%rax, %rbx
	movq	32(%rbp), %rax
	movq	%rax, %rcx
	call	_ZNSt7__cxx1110_List_baseINS_12basic_stringIcSt11char_traitsIcESaIcEEESaIS5_EE21_M_get_Node_allocatorEv
	movq	%rax, -8(%rbp)
	movq	%rbx, -16(%rbp)
	movl	$0, %eax
	testb	%al, %al
	je	.L324
	call	abort
.L324:
	nop
	addq	$56, %rsp
	popq	%rbx
	popq	%rbp
	ret
	.seh_endproc
	.section	.text$_ZNSt7__cxx114listINS_12basic_stringIcSt11char_traitsIcESaIcEEESaIS5_EE11_M_transferESt14_List_iteratorIS5_ES9_S9_,"x"
	.linkonce discard
	.align 2
	.globl	_ZNSt7__cxx114listINS_12basic_stringIcSt11char_traitsIcESaIcEEESaIS5_EE11_M_transferESt14_List_iteratorIS5_ES9_S9_
	.def	_ZNSt7__cxx114listINS_12basic_stringIcSt11char_traitsIcESaIcEEESaIS5_EE11_M_transferESt14_List_iteratorIS5_ES9_S9_;	.scl	2;	.type	32;	.endef
	.seh_proc	_ZNSt7__cxx114listINS_12basic_stringIcSt11char_traitsIcESaIcEEESaIS5_EE11_M_transferESt14_List_iteratorIS5_ES9_S9_
_ZNSt7__cxx114listINS_12basic_stringIcSt11char_traitsIcESaIcEEESaIS5_EE11_M_transferESt14_List_iteratorIS5_ES9_S9_:
.LFB4150:
	pushq	%rbp
	.seh_pushreg	%rbp
	movq	%rsp, %rbp
	.seh_setframe	%rbp, 0
	subq	$32, %rsp
	.seh_stackalloc	32
	.seh_endprologue
	movq	%rcx, 16(%rbp)
	movq	%rdx, 24(%rbp)
	movq	%r8, 32(%rbp)
	movq	%r9, 40(%rbp)
	movq	24(%rbp), %rax
	movq	40(%rbp), %rcx
	movq	32(%rbp), %rdx
	movq	%rcx, %r8
	movq	%rax, %rcx
	call	_ZNSt8__detail15_List_node_base11_M_transferEPS0_S1_
	nop
	addq	$32, %rsp
	popq	%rbp
	ret
	.seh_endproc
	.section	.text$_ZNSt7__cxx1110_List_baseINS_12basic_stringIcSt11char_traitsIcESaIcEEESaIS5_EE11_M_dec_sizeEy,"x"
	.linkonce discard
	.align 2
	.globl	_ZNSt7__cxx1110_List_baseINS_12basic_stringIcSt11char_traitsIcESaIcEEESaIS5_EE11_M_dec_sizeEy
	.def	_ZNSt7__cxx1110_List_baseINS_12basic_stringIcSt11char_traitsIcESaIcEEESaIS5_EE11_M_dec_sizeEy;	.scl	2;	.type	32;	.endef
	.seh_proc	_ZNSt7__cxx1110_List_baseINS_12basic_stringIcSt11char_traitsIcESaIcEEESaIS5_EE11_M_dec_sizeEy
_ZNSt7__cxx1110_List_baseINS_12basic_stringIcSt11char_traitsIcESaIcEEESaIS5_EE11_M_dec_sizeEy:
.LFB4151:
	pushq	%rbp
	.seh_pushreg	%rbp
	movq	%rsp, %rbp
	.seh_setframe	%rbp, 0
	.seh_endprologue
	movq	%rcx, 16(%rbp)
	movq	%rdx, 24(%rbp)
	movq	16(%rbp), %rax
	movq	16(%rax), %rax
	subq	24(%rbp), %rax
	movq	%rax, %rdx
	movq	16(%rbp), %rax
	movq	%rdx, 16(%rax)
	nop
	popq	%rbp
	ret
	.seh_endproc
	.section	.text$_ZNSt27__uninitialized_default_n_1ILb0EE18__uninit_default_nIPNSt7__cxx114listINS2_12basic_stringIcSt11char_traitsIcESaIcEEESaIS8_EEEyEET_SC_T0_,"x"
	.linkonce discard
	.globl	_ZNSt27__uninitialized_default_n_1ILb0EE18__uninit_default_nIPNSt7__cxx114listINS2_12basic_stringIcSt11char_traitsIcESaIcEEESaIS8_EEEyEET_SC_T0_
	.def	_ZNSt27__uninitialized_default_n_1ILb0EE18__uninit_default_nIPNSt7__cxx114listINS2_12basic_stringIcSt11char_traitsIcESaIcEEESaIS8_EEEyEET_SC_T0_;	.scl	2;	.type	32;	.endef
	.seh_proc	_ZNSt27__uninitialized_default_n_1ILb0EE18__uninit_default_nIPNSt7__cxx114listINS2_12basic_stringIcSt11char_traitsIcESaIcEEESaIS8_EEEyEET_SC_T0_
_ZNSt27__uninitialized_default_n_1ILb0EE18__uninit_default_nIPNSt7__cxx114listINS2_12basic_stringIcSt11char_traitsIcESaIcEEESaIS8_EEEyEET_SC_T0_:
.LFB4163:
	pushq	%rbp
	.seh_pushreg	%rbp
	movq	%rsp, %rbp
	.seh_setframe	%rbp, 0
	subq	$48, %rsp
	.seh_stackalloc	48
	.seh_endprologue
	movq	%rcx, 16(%rbp)
	movq	%rdx, 24(%rbp)
	movq	16(%rbp), %rax
	movq	%rax, -8(%rbp)
	jmp	.L328
.L329:
	movq	-8(%rbp), %rax
	movq	%rax, %rcx
	call	_ZSt11__addressofINSt7__cxx114listINS0_12basic_stringIcSt11char_traitsIcESaIcEEESaIS6_EEEEPT_RS9_
	movq	%rax, %rcx
	call	_ZSt10_ConstructINSt7__cxx114listINS0_12basic_stringIcSt11char_traitsIcESaIcEEESaIS6_EEEJEEvPT_DpOT0_
	subq	$1, 24(%rbp)
	addq	$24, -8(%rbp)
.L328:
	cmpq	$0, 24(%rbp)
	jne	.L329
	movq	-8(%rbp), %rax
	addq	$48, %rsp
	popq	%rbp
	ret
	.seh_endproc
	.section	.text$_ZNSt15__new_allocatorINSt7__cxx114listINS0_12basic_stringIcSt11char_traitsIcESaIcEEESaIS6_EEEE8allocateEyPKv,"x"
	.linkonce discard
	.align 2
	.globl	_ZNSt15__new_allocatorINSt7__cxx114listINS0_12basic_stringIcSt11char_traitsIcESaIcEEESaIS6_EEEE8allocateEyPKv
	.def	_ZNSt15__new_allocatorINSt7__cxx114listINS0_12basic_stringIcSt11char_traitsIcESaIcEEESaIS6_EEEE8allocateEyPKv;	.scl	2;	.type	32;	.endef
	.seh_proc	_ZNSt15__new_allocatorINSt7__cxx114listINS0_12basic_stringIcSt11char_traitsIcESaIcEEESaIS6_EEEE8allocateEyPKv
_ZNSt15__new_allocatorINSt7__cxx114listINS0_12basic_stringIcSt11char_traitsIcESaIcEEESaIS6_EEEE8allocateEyPKv:
.LFB4164:
	pushq	%rbp
	.seh_pushreg	%rbp
	movq	%rsp, %rbp
	.seh_setframe	%rbp, 0
	subq	$48, %rsp
	.seh_stackalloc	48
	.seh_endprologue
	movq	%rcx, 16(%rbp)
	movq	%rdx, 24(%rbp)
	movq	%r8, 32(%rbp)
	movq	16(%rbp), %rax
	movq	%rax, -8(%rbp)
	movabsq	$384307168202282325, %rax
	cmpq	24(%rbp), %rax
	setb	%al
	movzbl	%al, %eax
	testl	%eax, %eax
	setne	%al
	testb	%al, %al
	je	.L333
	movabsq	$768614336404564650, %rax
	cmpq	24(%rbp), %rax
	jnb	.L334
	call	_ZSt28__throw_bad_array_new_lengthv
.L334:
	call	_ZSt17__throw_bad_allocv
.L333:
	movq	24(%rbp), %rdx
	movq	%rdx, %rax
	addq	%rax, %rax
	addq	%rdx, %rax
	salq	$3, %rax
	movq	%rax, %rcx
	call	_Znwy
	nop
	addq	$48, %rsp
	popq	%rbp
	ret
	.seh_endproc
	.section	.text$_ZSt12__niter_baseIPNSt7__cxx114listINS0_12basic_stringIcSt11char_traitsIcESaIcEEESaIS6_EEEET_SA_,"x"
	.linkonce discard
	.globl	_ZSt12__niter_baseIPNSt7__cxx114listINS0_12basic_stringIcSt11char_traitsIcESaIcEEESaIS6_EEEET_SA_
	.def	_ZSt12__niter_baseIPNSt7__cxx114listINS0_12basic_stringIcSt11char_traitsIcESaIcEEESaIS6_EEEET_SA_;	.scl	2;	.type	32;	.endef
	.seh_proc	_ZSt12__niter_baseIPNSt7__cxx114listINS0_12basic_stringIcSt11char_traitsIcESaIcEEESaIS6_EEEET_SA_
_ZSt12__niter_baseIPNSt7__cxx114listINS0_12basic_stringIcSt11char_traitsIcESaIcEEESaIS6_EEEET_SA_:
.LFB4166:
	pushq	%rbp
	.seh_pushreg	%rbp
	movq	%rsp, %rbp
	.seh_setframe	%rbp, 0
	.seh_endprologue
	movq	%rcx, 16(%rbp)
	movq	16(%rbp), %rax
	popq	%rbp
	ret
	.seh_endproc
	.section	.text$_ZSt14__relocate_a_1IPNSt7__cxx114listINS0_12basic_stringIcSt11char_traitsIcESaIcEEESaIS6_EEES9_SaIS8_EET0_T_SC_SB_RT1_,"x"
	.linkonce discard
	.globl	_ZSt14__relocate_a_1IPNSt7__cxx114listINS0_12basic_stringIcSt11char_traitsIcESaIcEEESaIS6_EEES9_SaIS8_EET0_T_SC_SB_RT1_
	.def	_ZSt14__relocate_a_1IPNSt7__cxx114listINS0_12basic_stringIcSt11char_traitsIcESaIcEEESaIS6_EEES9_SaIS8_EET0_T_SC_SB_RT1_;	.scl	2;	.type	32;	.endef
	.seh_proc	_ZSt14__relocate_a_1IPNSt7__cxx114listINS0_12basic_stringIcSt11char_traitsIcESaIcEEESaIS6_EEES9_SaIS8_EET0_T_SC_SB_RT1_
_ZSt14__relocate_a_1IPNSt7__cxx114listINS0_12basic_stringIcSt11char_traitsIcESaIcEEESaIS6_EEES9_SaIS8_EET0_T_SC_SB_RT1_:
.LFB4167:
	pushq	%rbp
	.seh_pushreg	%rbp
	pushq	%rbx
	.seh_pushreg	%rbx
	subq	$56, %rsp
	.seh_stackalloc	56
	leaq	48(%rsp), %rbp
	.seh_setframe	%rbp, 48
	.seh_endprologue
	movq	%rcx, 32(%rbp)
	movq	%rdx, 40(%rbp)
	movq	%r8, 48(%rbp)
	movq	%r9, 56(%rbp)
	movq	48(%rbp), %rax
	movq	%rax, -8(%rbp)
	jmp	.L339
.L340:
	movq	32(%rbp), %rax
	movq	%rax, %rcx
	call	_ZSt11__addressofINSt7__cxx114listINS0_12basic_stringIcSt11char_traitsIcESaIcEEESaIS6_EEEEPT_RS9_
	movq	%rax, %rbx
	movq	-8(%rbp), %rax
	movq	%rax, %rcx
	call	_ZSt11__addressofINSt7__cxx114listINS0_12basic_stringIcSt11char_traitsIcESaIcEEESaIS6_EEEEPT_RS9_
	movq	56(%rbp), %rdx
	movq	%rdx, %r8
	movq	%rbx, %rdx
	movq	%rax, %rcx
	call	_ZSt19__relocate_object_aINSt7__cxx114listINS0_12basic_stringIcSt11char_traitsIcESaIcEEESaIS6_EEES8_SaIS8_EEvPT_PT0_RT1_
	addq	$24, 32(%rbp)
	addq	$24, -8(%rbp)
.L339:
	movq	32(%rbp), %rax
	cmpq	40(%rbp), %rax
	jne	.L340
	movq	-8(%rbp), %rax
	addq	$56, %rsp
	popq	%rbx
	popq	%rbp
	ret
	.seh_endproc
	.section	.text$_ZSt11__addressofISaISt10_List_nodeINSt7__cxx1112basic_stringIcSt11char_traitsIcESaIcEEEEEEPT_RS9_,"x"
	.linkonce discard
	.globl	_ZSt11__addressofISaISt10_List_nodeINSt7__cxx1112basic_stringIcSt11char_traitsIcESaIcEEEEEEPT_RS9_
	.def	_ZSt11__addressofISaISt10_List_nodeINSt7__cxx1112basic_stringIcSt11char_traitsIcESaIcEEEEEEPT_RS9_;	.scl	2;	.type	32;	.endef
	.seh_proc	_ZSt11__addressofISaISt10_List_nodeINSt7__cxx1112basic_stringIcSt11char_traitsIcESaIcEEEEEEPT_RS9_
_ZSt11__addressofISaISt10_List_nodeINSt7__cxx1112basic_stringIcSt11char_traitsIcESaIcEEEEEEPT_RS9_:
.LFB4169:
	pushq	%rbp
	.seh_pushreg	%rbp
	movq	%rsp, %rbp
	.seh_setframe	%rbp, 0
	.seh_endprologue
	movq	%rcx, 16(%rbp)
	movq	16(%rbp), %rax
	popq	%rbp
	ret
	.seh_endproc
	.section	.text$_ZNSt7__cxx1110_List_baseINS_12basic_stringIcSt11char_traitsIcESaIcEEESaIS5_EEC2Ev,"x"
	.linkonce discard
	.align 2
	.globl	_ZNSt7__cxx1110_List_baseINS_12basic_stringIcSt11char_traitsIcESaIcEEESaIS5_EEC2Ev
	.def	_ZNSt7__cxx1110_List_baseINS_12basic_stringIcSt11char_traitsIcESaIcEEESaIS5_EEC2Ev;	.scl	2;	.type	32;	.endef
	.seh_proc	_ZNSt7__cxx1110_List_baseINS_12basic_stringIcSt11char_traitsIcESaIcEEESaIS5_EEC2Ev
_ZNSt7__cxx1110_List_baseINS_12basic_stringIcSt11char_traitsIcESaIcEEESaIS5_EEC2Ev:
.LFB4185:
	pushq	%rbp
	.seh_pushreg	%rbp
	movq	%rsp, %rbp
	.seh_setframe	%rbp, 0
	subq	$32, %rsp
	.seh_stackalloc	32
	.seh_endprologue
	movq	%rcx, 16(%rbp)
	movq	16(%rbp), %rax
	movq	%rax, %rcx
	call	_ZNSt7__cxx1110_List_baseINS_12basic_stringIcSt11char_traitsIcESaIcEEESaIS5_EE10_List_implC1Ev
	nop
	addq	$32, %rsp
	popq	%rbp
	ret
	.seh_endproc
	.section	.text$_ZNSt7__cxx114listINS_12basic_stringIcSt11char_traitsIcESaIcEEESaIS5_EEC1Ev,"x"
	.linkonce discard
	.align 2
	.globl	_ZNSt7__cxx114listINS_12basic_stringIcSt11char_traitsIcESaIcEEESaIS5_EEC1Ev
	.def	_ZNSt7__cxx114listINS_12basic_stringIcSt11char_traitsIcESaIcEEESaIS5_EEC1Ev;	.scl	2;	.type	32;	.endef
	.seh_proc	_ZNSt7__cxx114listINS_12basic_stringIcSt11char_traitsIcESaIcEEESaIS5_EEC1Ev
_ZNSt7__cxx114listINS_12basic_stringIcSt11char_traitsIcESaIcEEESaIS5_EEC1Ev:
.LFB4188:
	pushq	%rbp
	.seh_pushreg	%rbp
	movq	%rsp, %rbp
	.seh_setframe	%rbp, 0
	subq	$32, %rsp
	.seh_stackalloc	32
	.seh_endprologue
	movq	%rcx, 16(%rbp)
	movq	16(%rbp), %rax
	movq	%rax, %rcx
	call	_ZNSt7__cxx1110_List_baseINS_12basic_stringIcSt11char_traitsIcESaIcEEESaIS5_EEC2Ev
	nop
	addq	$32, %rsp
	popq	%rbp
	ret
	.seh_endproc
	.section	.text$_ZSt10_ConstructINSt7__cxx114listINS0_12basic_stringIcSt11char_traitsIcESaIcEEESaIS6_EEEJEEvPT_DpOT0_,"x"
	.linkonce discard
	.globl	_ZSt10_ConstructINSt7__cxx114listINS0_12basic_stringIcSt11char_traitsIcESaIcEEESaIS6_EEEJEEvPT_DpOT0_
	.def	_ZSt10_ConstructINSt7__cxx114listINS0_12basic_stringIcSt11char_traitsIcESaIcEEESaIS6_EEEJEEvPT_DpOT0_;	.scl	2;	.type	32;	.endef
	.seh_proc	_ZSt10_ConstructINSt7__cxx114listINS0_12basic_stringIcSt11char_traitsIcESaIcEEESaIS6_EEEJEEvPT_DpOT0_
_ZSt10_ConstructINSt7__cxx114listINS0_12basic_stringIcSt11char_traitsIcESaIcEEESaIS6_EEEJEEvPT_DpOT0_:
.LFB4181:
	pushq	%rbp
	.seh_pushreg	%rbp
	movq	%rsp, %rbp
	.seh_setframe	%rbp, 0
	subq	$32, %rsp
	.seh_stackalloc	32
	.seh_endprologue
	movq	%rcx, 16(%rbp)
	movq	16(%rbp), %rax
	movq	%rax, %rdx
	movl	$24, %ecx
	call	_ZnwyPv
	pxor	%xmm0, %xmm0
	movups	%xmm0, (%rax)
	movq	%xmm0, 16(%rax)
	movq	%rax, %rcx
	call	_ZNSt7__cxx114listINS_12basic_stringIcSt11char_traitsIcESaIcEEESaIS5_EEC1Ev
	nop
	addq	$32, %rsp
	popq	%rbp
	ret
	.seh_endproc
	.section	.text$_ZSt19__relocate_object_aINSt7__cxx114listINS0_12basic_stringIcSt11char_traitsIcESaIcEEESaIS6_EEES8_SaIS8_EEvPT_PT0_RT1_,"x"
	.linkonce discard
	.globl	_ZSt19__relocate_object_aINSt7__cxx114listINS0_12basic_stringIcSt11char_traitsIcESaIcEEESaIS6_EEES8_SaIS8_EEvPT_PT0_RT1_
	.def	_ZSt19__relocate_object_aINSt7__cxx114listINS0_12basic_stringIcSt11char_traitsIcESaIcEEESaIS6_EEES8_SaIS8_EEvPT_PT0_RT1_;	.scl	2;	.type	32;	.endef
	.seh_proc	_ZSt19__relocate_object_aINSt7__cxx114listINS0_12basic_stringIcSt11char_traitsIcESaIcEEESaIS6_EEES8_SaIS8_EEvPT_PT0_RT1_
_ZSt19__relocate_object_aINSt7__cxx114listINS0_12basic_stringIcSt11char_traitsIcESaIcEEESaIS6_EEES8_SaIS8_EEvPT_PT0_RT1_:
.LFB4189:
	pushq	%rbp
	.seh_pushreg	%rbp
	pushq	%rbx
	.seh_pushreg	%rbx
	subq	$120, %rsp
	.seh_stackalloc	120
	leaq	112(%rsp), %rbp
	.seh_setframe	%rbp, 112
	.seh_endprologue
	movq	%rcx, 32(%rbp)
	movq	%rdx, 40(%rbp)
	movq	%r8, 48(%rbp)
	movq	40(%rbp), %rax
	movq	%rax, %rcx
	call	_ZSt4moveIRNSt7__cxx114listINS0_12basic_stringIcSt11char_traitsIcESaIcEEESaIS6_EEEEONSt16remove_referenceIT_E4typeEOSB_
	movq	48(%rbp), %rdx
	movq	%rdx, -40(%rbp)
	movq	32(%rbp), %rdx
	movq	%rdx, -48(%rbp)
	movq	%rax, -56(%rbp)
	movq	-56(%rbp), %rax
	movq	%rax, %rcx
	call	_ZSt7forwardINSt7__cxx114listINS0_12basic_stringIcSt11char_traitsIcESaIcEEESaIS6_EEEEOT_RNSt16remove_referenceIS9_E4typeE
	movq	-48(%rbp), %rdx
	movq	%rdx, -64(%rbp)
	movq	%rax, -72(%rbp)
	movq	-40(%rbp), %rax
	movq	%rax, -80(%rbp)
	movq	-64(%rbp), %rax
	movq	%rax, %rdx
	movl	$24, %ecx
	call	_ZnwyPv
	movq	%rax, %rbx
	movq	-72(%rbp), %rax
	movq	%rax, %rcx
	call	_ZSt7forwardINSt7__cxx114listINS0_12basic_stringIcSt11char_traitsIcESaIcEEESaIS6_EEEEOT_RNSt16remove_referenceIS9_E4typeE
	movq	%rax, %rdx
	movq	%rbx, %rcx
	call	_ZNSt7__cxx114listINS_12basic_stringIcSt11char_traitsIcESaIcEEESaIS5_EEC1EOS7_
	nop
	nop
	movq	40(%rbp), %rax
	movq	%rax, %rcx
	call	_ZSt11__addressofINSt7__cxx114listINS0_12basic_stringIcSt11char_traitsIcESaIcEEESaIS6_EEEEPT_RS9_
	movq	48(%rbp), %rdx
	movq	%rdx, -8(%rbp)
	movq	%rax, -16(%rbp)
	movq	-16(%rbp), %rax
	movq	%rax, -24(%rbp)
	movq	-8(%rbp), %rax
	movq	%rax, -32(%rbp)
	movq	-24(%rbp), %rax
	movq	%rax, %rcx
	call	_ZNSt7__cxx114listINS_12basic_stringIcSt11char_traitsIcESaIcEEESaIS5_EED1Ev
	nop
	nop
	nop
	addq	$120, %rsp
	popq	%rbx
	popq	%rbp
	ret
	.seh_endproc
	.section	.text$_ZNSt15__new_allocatorISt10_List_nodeINSt7__cxx1112basic_stringIcSt11char_traitsIcESaIcEEEEE8allocateEyPKv,"x"
	.linkonce discard
	.align 2
	.globl	_ZNSt15__new_allocatorISt10_List_nodeINSt7__cxx1112basic_stringIcSt11char_traitsIcESaIcEEEEE8allocateEyPKv
	.def	_ZNSt15__new_allocatorISt10_List_nodeINSt7__cxx1112basic_stringIcSt11char_traitsIcESaIcEEEEE8allocateEyPKv;	.scl	2;	.type	32;	.endef
	.seh_proc	_ZNSt15__new_allocatorISt10_List_nodeINSt7__cxx1112basic_stringIcSt11char_traitsIcESaIcEEEEE8allocateEyPKv
_ZNSt15__new_allocatorISt10_List_nodeINSt7__cxx1112basic_stringIcSt11char_traitsIcESaIcEEEEE8allocateEyPKv:
.LFB4190:
	pushq	%rbp
	.seh_pushreg	%rbp
	movq	%rsp, %rbp
	.seh_setframe	%rbp, 0
	subq	$48, %rsp
	.seh_stackalloc	48
	.seh_endprologue
	movq	%rcx, 16(%rbp)
	movq	%rdx, 24(%rbp)
	movq	%r8, 32(%rbp)
	movq	16(%rbp), %rax
	movq	%rax, -8(%rbp)
	movabsq	$192153584101141162, %rax
	cmpq	24(%rbp), %rax
	setb	%al
	movzbl	%al, %eax
	testl	%eax, %eax
	setne	%al
	testb	%al, %al
	je	.L350
	movabsq	$384307168202282325, %rax
	cmpq	24(%rbp), %rax
	jnb	.L351
	call	_ZSt28__throw_bad_array_new_lengthv
.L351:
	call	_ZSt17__throw_bad_allocv
.L350:
	movq	24(%rbp), %rdx
	movq	%rdx, %rax
	addq	%rax, %rax
	addq	%rdx, %rax
	salq	$4, %rax
	movq	%rax, %rcx
	call	_Znwy
	nop
	addq	$48, %rsp
	popq	%rbp
	ret
	.seh_endproc
	.section	.text$_ZNSt15__new_allocatorISt10_List_nodeINSt7__cxx1112basic_stringIcSt11char_traitsIcESaIcEEEEE10deallocateEPS7_y,"x"
	.linkonce discard
	.align 2
	.globl	_ZNSt15__new_allocatorISt10_List_nodeINSt7__cxx1112basic_stringIcSt11char_traitsIcESaIcEEEEE10deallocateEPS7_y
	.def	_ZNSt15__new_allocatorISt10_List_nodeINSt7__cxx1112basic_stringIcSt11char_traitsIcESaIcEEEEE10deallocateEPS7_y;	.scl	2;	.type	32;	.endef
	.seh_proc	_ZNSt15__new_allocatorISt10_List_nodeINSt7__cxx1112basic_stringIcSt11char_traitsIcESaIcEEEEE10deallocateEPS7_y
_ZNSt15__new_allocatorISt10_List_nodeINSt7__cxx1112basic_stringIcSt11char_traitsIcESaIcEEEEE10deallocateEPS7_y:
.LFB4192:
	pushq	%rbp
	.seh_pushreg	%rbp
	movq	%rsp, %rbp
	.seh_setframe	%rbp, 0
	subq	$32, %rsp
	.seh_stackalloc	32
	.seh_endprologue
	movq	%rcx, 16(%rbp)
	movq	%rdx, 24(%rbp)
	movq	%r8, 32(%rbp)
	movq	32(%rbp), %rdx
	movq	%rdx, %rax
	addq	%rax, %rax
	addq	%rdx, %rax
	salq	$4, %rax
	movq	%rax, %rdx
	movq	24(%rbp), %rax
	movq	%rax, %rcx
	call	_ZdlPvy
	nop
	addq	$32, %rsp
	popq	%rbp
	ret
	.seh_endproc
	.section	.text$_ZNSt7__cxx1110_List_baseINS_12basic_stringIcSt11char_traitsIcESaIcEEESaIS5_EE10_List_implC1Ev,"x"
	.linkonce discard
	.align 2
	.globl	_ZNSt7__cxx1110_List_baseINS_12basic_stringIcSt11char_traitsIcESaIcEEESaIS5_EE10_List_implC1Ev
	.def	_ZNSt7__cxx1110_List_baseINS_12basic_stringIcSt11char_traitsIcESaIcEEESaIS5_EE10_List_implC1Ev;	.scl	2;	.type	32;	.endef
	.seh_proc	_ZNSt7__cxx1110_List_baseINS_12basic_stringIcSt11char_traitsIcESaIcEEESaIS5_EE10_List_implC1Ev
_ZNSt7__cxx1110_List_baseINS_12basic_stringIcSt11char_traitsIcESaIcEEESaIS5_EE10_List_implC1Ev:
.LFB4201:
	pushq	%rbp
	.seh_pushreg	%rbp
	movq	%rsp, %rbp
	.seh_setframe	%rbp, 0
	subq	$48, %rsp
	.seh_stackalloc	48
	.seh_endprologue
	movq	%rcx, 16(%rbp)
	movq	16(%rbp), %rax
	movq	%rax, -8(%rbp)
	movq	-8(%rbp), %rax
	movq	%rax, -16(%rbp)
	nop
	nop
	movq	16(%rbp), %rax
	movq	%rax, %rcx
	call	_ZNSt8__detail17_List_node_headerC1Ev
	nop
	addq	$48, %rsp
	popq	%rbp
	ret
	.seh_endproc
	.section	.text$_ZSt7forwardINSt7__cxx114listINS0_12basic_stringIcSt11char_traitsIcESaIcEEESaIS6_EEEEOT_RNSt16remove_referenceIS9_E4typeE,"x"
	.linkonce discard
	.globl	_ZSt7forwardINSt7__cxx114listINS0_12basic_stringIcSt11char_traitsIcESaIcEEESaIS6_EEEEOT_RNSt16remove_referenceIS9_E4typeE
	.def	_ZSt7forwardINSt7__cxx114listINS0_12basic_stringIcSt11char_traitsIcESaIcEEESaIS6_EEEEOT_RNSt16remove_referenceIS9_E4typeE;	.scl	2;	.type	32;	.endef
	.seh_proc	_ZSt7forwardINSt7__cxx114listINS0_12basic_stringIcSt11char_traitsIcESaIcEEESaIS6_EEEEOT_RNSt16remove_referenceIS9_E4typeE
_ZSt7forwardINSt7__cxx114listINS0_12basic_stringIcSt11char_traitsIcESaIcEEESaIS6_EEEEOT_RNSt16remove_referenceIS9_E4typeE:
.LFB4209:
	pushq	%rbp
	.seh_pushreg	%rbp
	movq	%rsp, %rbp
	.seh_setframe	%rbp, 0
	.seh_endprologue
	movq	%rcx, 16(%rbp)
	movq	16(%rbp), %rax
	popq	%rbp
	ret
	.seh_endproc
	.section	.text$_ZNSt7__cxx1110_List_baseINS_12basic_stringIcSt11char_traitsIcESaIcEEESaIS5_EE10_List_implC1EOS8_,"x"
	.linkonce discard
	.align 2
	.globl	_ZNSt7__cxx1110_List_baseINS_12basic_stringIcSt11char_traitsIcESaIcEEESaIS5_EE10_List_implC1EOS8_
	.def	_ZNSt7__cxx1110_List_baseINS_12basic_stringIcSt11char_traitsIcESaIcEEESaIS5_EE10_List_implC1EOS8_;	.scl	2;	.type	32;	.endef
	.seh_proc	_ZNSt7__cxx1110_List_baseINS_12basic_stringIcSt11char_traitsIcESaIcEEESaIS5_EE10_List_implC1EOS8_
_ZNSt7__cxx1110_List_baseINS_12basic_stringIcSt11char_traitsIcESaIcEEESaIS5_EE10_List_implC1EOS8_:
.LFB4215:
	pushq	%rbp
	.seh_pushreg	%rbp
	movq	%rsp, %rbp
	.seh_setframe	%rbp, 0
	subq	$64, %rsp
	.seh_stackalloc	64
	.seh_endprologue
	movq	%rcx, 16(%rbp)
	movq	%rdx, 24(%rbp)
	movq	16(%rbp), %rax
	movq	%rax, -8(%rbp)
	movq	24(%rbp), %rax
	movq	%rax, -16(%rbp)
	movq	-8(%rbp), %rax
	movq	%rax, -24(%rbp)
	movq	-16(%rbp), %rax
	movq	%rax, -32(%rbp)
	nop
	nop
	movq	16(%rbp), %rax
	movq	24(%rbp), %rdx
	movq	%rax, %rcx
	call	_ZNSt8__detail17_List_node_headerC1EOS0_
	nop
	addq	$64, %rsp
	popq	%rbp
	ret
	.seh_endproc
	.section	.text$_ZNSt7__cxx1110_List_baseINS_12basic_stringIcSt11char_traitsIcESaIcEEESaIS5_EEC2EOS7_,"x"
	.linkonce discard
	.align 2
	.globl	_ZNSt7__cxx1110_List_baseINS_12basic_stringIcSt11char_traitsIcESaIcEEESaIS5_EEC2EOS7_
	.def	_ZNSt7__cxx1110_List_baseINS_12basic_stringIcSt11char_traitsIcESaIcEEESaIS5_EEC2EOS7_;	.scl	2;	.type	32;	.endef
	.seh_proc	_ZNSt7__cxx1110_List_baseINS_12basic_stringIcSt11char_traitsIcESaIcEEESaIS5_EEC2EOS7_
_ZNSt7__cxx1110_List_baseINS_12basic_stringIcSt11char_traitsIcESaIcEEESaIS5_EEC2EOS7_:
.LFB4216:
	pushq	%rbp
	.seh_pushreg	%rbp
	movq	%rsp, %rbp
	.seh_setframe	%rbp, 0
	subq	$32, %rsp
	.seh_stackalloc	32
	.seh_endprologue
	movq	%rcx, 16(%rbp)
	movq	%rdx, 24(%rbp)
	movq	16(%rbp), %rax
	movq	24(%rbp), %rdx
	movq	%rax, %rcx
	call	_ZNSt7__cxx1110_List_baseINS_12basic_stringIcSt11char_traitsIcESaIcEEESaIS5_EE10_List_implC1EOS8_
	nop
	addq	$32, %rsp
	popq	%rbp
	ret
	.seh_endproc
	.section	.text$_ZNSt7__cxx114listINS_12basic_stringIcSt11char_traitsIcESaIcEEESaIS5_EEC1EOS7_,"x"
	.linkonce discard
	.align 2
	.globl	_ZNSt7__cxx114listINS_12basic_stringIcSt11char_traitsIcESaIcEEESaIS5_EEC1EOS7_
	.def	_ZNSt7__cxx114listINS_12basic_stringIcSt11char_traitsIcESaIcEEESaIS5_EEC1EOS7_;	.scl	2;	.type	32;	.endef
	.seh_proc	_ZNSt7__cxx114listINS_12basic_stringIcSt11char_traitsIcESaIcEEESaIS5_EEC1EOS7_
_ZNSt7__cxx114listINS_12basic_stringIcSt11char_traitsIcESaIcEEESaIS5_EEC1EOS7_:
.LFB4219:
	pushq	%rbp
	.seh_pushreg	%rbp
	movq	%rsp, %rbp
	.seh_setframe	%rbp, 0
	subq	$32, %rsp
	.seh_stackalloc	32
	.seh_endprologue
	movq	%rcx, 16(%rbp)
	movq	%rdx, 24(%rbp)
	movq	16(%rbp), %rax
	movq	24(%rbp), %rdx
	movq	%rax, %rcx
	call	_ZNSt7__cxx1110_List_baseINS_12basic_stringIcSt11char_traitsIcESaIcEEESaIS5_EEC2EOS7_
	nop
	addq	$32, %rsp
	popq	%rbp
	ret
	.seh_endproc
	.section .rdata,"dr"
_ZNSt8__detail30__integer_to_chars_is_unsignedIjEE:
	.byte	1
_ZNSt8__detail30__integer_to_chars_is_unsignedImEE:
	.byte	1
_ZNSt8__detail30__integer_to_chars_is_unsignedIyEE:
	.byte	1
	.def	__gxx_personality_seh0;	.scl	2;	.type	32;	.endef
	.def	__main;	.scl	2;	.type	32;	.endef
	.ident	"GCC: (Rev3, Built by MSYS2 project) 14.1.0"
	.def	memcmp;	.scl	2;	.type	32;	.endef
	.def	strlen;	.scl	2;	.type	32;	.endef
	.def	_ZSt11_Hash_bytesPKvyy;	.scl	2;	.type	32;	.endef
	.def	_ZStlsISt11char_traitsIcEERSt13basic_ostreamIcT_ES5_PKc;	.scl	2;	.type	32;	.endef
	.def	_ZNSolsEPFRSoS_E;	.scl	2;	.type	32;	.endef
	.def	_ZNSt7__cxx1112basic_stringIcSt11char_traitsIcESaIcEED1Ev;	.scl	2;	.type	32;	.endef
	.def	_ZNSolsEi;	.scl	2;	.type	32;	.endef
	.def	_Unwind_Resume;	.scl	2;	.type	32;	.endef
	.def	_ZNSt7__cxx1112basic_stringIcSt11char_traitsIcESaIcEE13_M_local_dataEv;	.scl	2;	.type	32;	.endef
	.def	_ZNSt7__cxx1112basic_stringIcSt11char_traitsIcESaIcEE12_Alloc_hiderC1EPcRKS3_;	.scl	2;	.type	32;	.endef
	.def	_ZSt19__throw_logic_errorPKc;	.scl	2;	.type	32;	.endef
	.def	_ZStlsIcSt11char_traitsIcESaIcEERSt13basic_ostreamIT_T0_ES7_RKNSt7__cxx1112basic_stringIS4_S5_T1_EE;	.scl	2;	.type	32;	.endef
	.def	_ZNSt7__cxx1112basic_stringIcSt11char_traitsIcESaIcEE10_M_disposeEv;	.scl	2;	.type	32;	.endef
	.def	_ZNSt7__cxx1112basic_stringIcSt11char_traitsIcESaIcEE9_M_createERyy;	.scl	2;	.type	32;	.endef
	.def	_ZNSt7__cxx1112basic_stringIcSt11char_traitsIcESaIcEE7_M_dataEPc;	.scl	2;	.type	32;	.endef
	.def	_ZNSt7__cxx1112basic_stringIcSt11char_traitsIcESaIcEE11_M_capacityEy;	.scl	2;	.type	32;	.endef
	.def	_ZNKSt7__cxx1112basic_stringIcSt11char_traitsIcESaIcEE7_M_dataEv;	.scl	2;	.type	32;	.endef
	.def	_ZNSt7__cxx1112basic_stringIcSt11char_traitsIcESaIcEE13_S_copy_charsEPcPKcS7_;	.scl	2;	.type	32;	.endef
	.def	_ZNSt7__cxx1112basic_stringIcSt11char_traitsIcESaIcEE13_M_set_lengthEy;	.scl	2;	.type	32;	.endef
	.def	_ZNKSt7__cxx1112basic_stringIcSt11char_traitsIcESaIcEE4sizeEv;	.scl	2;	.type	32;	.endef
	.def	_ZNKSt7__cxx1112basic_stringIcSt11char_traitsIcESaIcEE4dataEv;	.scl	2;	.type	32;	.endef
	.def	_ZNKSt7__cxx1112basic_stringIcSt11char_traitsIcESaIcEE6lengthEv;	.scl	2;	.type	32;	.endef
	.def	_ZNSt8__detail15_List_node_base7_M_hookEPS0_;	.scl	2;	.type	32;	.endef
	.def	_ZSt20__throw_length_errorPKc;	.scl	2;	.type	32;	.endef
	.def	_ZNSt7__cxx1112basic_stringIcSt11char_traitsIcESaIcEEC1ERKS4_;	.scl	2;	.type	32;	.endef
	.def	_ZdlPvy;	.scl	2;	.type	32;	.endef
	.def	abort;	.scl	2;	.type	32;	.endef
	.def	_ZNSt8__detail15_List_node_base11_M_transferEPS0_S1_;	.scl	2;	.type	32;	.endef
	.def	_ZSt28__throw_bad_array_new_lengthv;	.scl	2;	.type	32;	.endef
	.def	_ZSt17__throw_bad_allocv;	.scl	2;	.type	32;	.endef
	.def	_Znwy;	.scl	2;	.type	32;	.endef
	.section	.rdata$.refptr._ZSt4endlIcSt11char_traitsIcEERSt13basic_ostreamIT_T0_ES6_, "dr"
	.globl	.refptr._ZSt4endlIcSt11char_traitsIcEERSt13basic_ostreamIT_T0_ES6_
	.linkonce	discard
.refptr._ZSt4endlIcSt11char_traitsIcEERSt13basic_ostreamIT_T0_ES6_:
	.quad	_ZSt4endlIcSt11char_traitsIcEERSt13basic_ostreamIT_T0_ES6_
	.section	.rdata$.refptr._ZSt4cout, "dr"
	.globl	.refptr._ZSt4cout
	.linkonce	discard
.refptr._ZSt4cout:
	.quad	_ZSt4cout
